(iniveau
NiveauGenerated
p0
(dp1
S'image'
p2
S'images/space5.jpg'
p3
sS'name'
p4
S'niveau 1 - planete X33B'
p5
sS'actions'
p6
(dp7
I0
(iniveau
NiveauAction
p8
(dp9
S'object'
p10
S'AsteroidDeco'
p11
sS'isDeco'
p12
I01
sS'time'
p13
I0
sS'position'
p14
(I800
I405
tp15
sS'movement'
p16
(I-55
I20
I133
tp17
sS'type'
p18
S'create'
p19
sS'id'
p20
I0
sS'size'
p21
(I73
I73
tp22
sbsI1
(iniveau
NiveauAction
p23
(dp24
g10
g11
sg12
I01
sg13
I1
sg14
(I800
I393
tp25
sg16
(I-48
I29
I13
tp26
sg18
g19
sg20
I1
sg21
(I68
I68
tp27
sbsI2
(iniveau
NiveauAction
p28
(dp29
g10
g11
sg12
I01
sg13
I4
sg14
(I800
I171
tp30
sg16
(I-40
I22
I58
tp31
sg18
g19
sg20
I2
sg21
(I49
I49
tp32
sbsI3
(iniveau
NiveauAction
p33
(dp34
g10
g11
sg12
I01
sg13
I7
sg14
(I800
I28
tp35
sg16
(I-89
I37
I-170
tp36
sg18
g19
sg20
I3
sg21
(I99
I99
tp37
sbsI4
(iniveau
NiveauAction
p38
(dp39
g10
g11
sg12
I01
sg13
I11
sg14
(I800
I449
tp40
sg16
(I-59
I5
I-24
tp41
sg18
g19
sg20
I4
sg21
(I98
I98
tp42
sbsI5
(iniveau
NiveauAction
p43
(dp44
g10
g11
sg12
I01
sg13
I13
sg14
(I800
I48
tp45
sg16
(I-98
I48
I-156
tp46
sg18
g19
sg20
I5
sg21
(I86
I86
tp47
sbsI6
(iniveau
NiveauAction
p48
(dp49
g10
g11
sg12
I01
sg13
I14
sg14
(I800
I380
tp50
sg16
(I-29
I-17
I153
tp51
sg18
g19
sg20
I6
sg21
(I33
I33
tp52
sbsI7
(iniveau
NiveauAction
p53
(dp54
g10
g11
sg12
I01
sg13
I17
sg14
(I800
I449
tp55
sg16
(I-72
I30
I-29
tp56
sg18
g19
sg20
I7
sg21
(I65
I65
tp57
sbsI8
(iniveau
NiveauAction
p58
(dp59
g10
g11
sg12
I01
sg13
I20
sg14
(I800
I145
tp60
sg16
(I-40
I-9
I-26
tp61
sg18
g19
sg20
I8
sg21
(I85
I85
tp62
sbsI9
(iniveau
NiveauAction
p63
(dp64
g10
g11
sg12
I01
sg13
I22
sg14
(I800
I116
tp65
sg16
(I-86
I-41
I-39
tp66
sg18
g19
sg20
I9
sg21
(I75
I75
tp67
sbsI10
(iniveau
NiveauAction
p68
(dp69
g10
g11
sg12
I01
sg13
I23
sg14
(I800
I186
tp70
sg16
(I-71
I30
I-71
tp71
sg18
g19
sg20
I10
sg21
(I76
I76
tp72
sbsI11
(iniveau
NiveauAction
p73
(dp74
g10
g11
sg12
I01
sg13
I25
sg14
(I800
I357
tp75
sg16
(I-78
I38
I90
tp76
sg18
g19
sg20
I11
sg21
(I64
I64
tp77
sbsI12
(iniveau
NiveauAction
p78
(dp79
g10
g11
sg12
I01
sg13
I28
sg14
(I800
I156
tp80
sg16
(I-40
I-38
I134
tp81
sg18
g19
sg20
I12
sg21
(I20
I20
tp82
sbsI13
(iniveau
NiveauAction
p83
(dp84
g10
g11
sg12
I01
sg13
I31
sg14
(I800
I412
tp85
sg16
(I-64
I29
I-108
tp86
sg18
g19
sg20
I13
sg21
(I50
I50
tp87
sbsI14
(iniveau
NiveauAction
p88
(dp89
g10
g11
sg12
I01
sg13
I33
sg14
(I800
I234
tp90
sg16
(I-31
I29
I-80
tp91
sg18
g19
sg20
I14
sg21
(I84
I84
tp92
sbsI15
(iniveau
NiveauAction
p93
(dp94
g10
g11
sg12
I01
sg13
I34
sg14
(I800
I189
tp95
sg16
(I-44
I-33
I107
tp96
sg18
g19
sg20
I15
sg21
(I23
I23
tp97
sbsI16
(iniveau
NiveauAction
p98
(dp99
g10
g11
sg12
I01
sg13
I35
sg14
(I800
I323
tp100
sg16
(I-94
I-28
I176
tp101
sg18
g19
sg20
I16
sg21
(I38
I38
tp102
sbsI17
(iniveau
NiveauAction
p103
(dp104
g10
S'Asteroid'
p105
sg12
I00
sg13
I38
sg14
(I800
I298
tp106
sg16
(I-43
I-11
I5
tp107
sg18
g19
sg20
I17
sg21
(I51
I51
tp108
sbsI18
(iniveau
NiveauAction
p109
(dp110
g10
g11
sg12
I01
sg13
I42
sg14
(I800
I65
tp111
sg16
(I-46
I8
I170
tp112
sg18
g19
sg20
I18
sg21
(I51
I51
tp113
sbsI19
(iniveau
NiveauAction
p114
(dp115
g10
g11
sg12
I01
sg13
I47
sg14
(I800
I63
tp116
sg16
(I-40
I43
I-140
tp117
sg18
g19
sg20
I19
sg21
(I77
I77
tp118
sbsI20
(iniveau
NiveauAction
p119
(dp120
g10
g11
sg12
I01
sg13
I52
sg14
(I800
I366
tp121
sg16
(I-21
I9
I43
tp122
sg18
g19
sg20
I20
sg21
(I85
I85
tp123
sbsI21
(iniveau
NiveauAction
p124
(dp125
g10
g11
sg12
I01
sg13
I55
sg14
(I800
I24
tp126
sg16
(I-66
I-40
I50
tp127
sg18
g19
sg20
I21
sg21
(I27
I27
tp128
sbsI22
(iniveau
NiveauAction
p129
(dp130
g10
g11
sg12
I01
sg13
I59
sg14
(I800
I338
tp131
sg16
(I-27
I-39
I63
tp132
sg18
g19
sg20
I22
sg21
(I66
I66
tp133
sbsI23
(iniveau
NiveauAction
p134
(dp135
g10
g105
sg12
I00
sg13
I61
sg14
(I800
I36
tp136
sg16
(I-43
I-48
I-108
tp137
sg18
g19
sg20
I23
sg21
(I28
I28
tp138
sbsI24
(iniveau
NiveauAction
p139
(dp140
g10
g11
sg12
I01
sg13
I64
sg14
(I800
I0
tp141
sg16
(I-75
I-11
I-69
tp142
sg18
g19
sg20
I24
sg21
(I67
I67
tp143
sbsI25
(iniveau
NiveauAction
p144
(dp145
g10
g11
sg12
I01
sg13
I67
sg14
(I800
I417
tp146
sg16
(I-94
I19
I89
tp147
sg18
g19
sg20
I25
sg21
(I19
I19
tp148
sbsI26
(iniveau
NiveauAction
p149
(dp150
g10
g11
sg12
I01
sg13
I71
sg14
(I800
I14
tp151
sg16
(I-92
I27
I-73
tp152
sg18
g19
sg20
I26
sg21
(I74
I74
tp153
sbsI27
(iniveau
NiveauAction
p154
(dp155
g10
g11
sg12
I01
sg13
I75
sg14
(I800
I178
tp156
sg16
(I-64
I18
I88
tp157
sg18
g19
sg20
I27
sg21
(I67
I67
tp158
sbsI28
(iniveau
NiveauAction
p159
(dp160
g10
g11
sg12
I01
sg13
I76
sg14
(I800
I83
tp161
sg16
(I-77
I11
I-150
tp162
sg18
g19
sg20
I28
sg21
(I50
I50
tp163
sbsI29
(iniveau
NiveauAction
p164
(dp165
g10
g11
sg12
I01
sg13
I80
sg14
(I800
I56
tp166
sg16
(I-71
I-21
I143
tp167
sg18
g19
sg20
I29
sg21
(I45
I45
tp168
sbsI30
(iniveau
NiveauAction
p169
(dp170
g10
g11
sg12
I01
sg13
I82
sg14
(I800
I44
tp171
sg16
(I-72
I-6
I45
tp172
sg18
g19
sg20
I30
sg21
(I63
I63
tp173
sbsI31
(iniveau
NiveauAction
p174
(dp175
g10
g11
sg12
I01
sg13
I85
sg14
(I800
I350
tp176
sg16
(I-32
I9
I-124
tp177
sg18
g19
sg20
I31
sg21
(I32
I32
tp178
sbsI32
(iniveau
NiveauAction
p179
(dp180
g10
g11
sg12
I01
sg13
I88
sg14
(I800
I87
tp181
sg16
(I-38
I-25
I-136
tp182
sg18
g19
sg20
I32
sg21
(I27
I27
tp183
sbsI33
(iniveau
NiveauAction
p184
(dp185
g10
g11
sg12
I01
sg13
I89
sg14
(I800
I318
tp186
sg16
(I-54
I-14
I34
tp187
sg18
g19
sg20
I33
sg21
(I46
I46
tp188
sbsI34
(iniveau
NiveauAction
p189
(dp190
g10
g11
sg12
I01
sg13
I93
sg14
(I800
I170
tp191
sg16
(I-50
I-1
I-38
tp192
sg18
g19
sg20
I34
sg21
(I94
I94
tp193
sbsI35
(iniveau
NiveauAction
p194
(dp195
g10
g11
sg12
I01
sg13
I97
sg14
(I800
I399
tp196
sg16
(I-23
I2
I-84
tp197
sg18
g19
sg20
I35
sg21
(I12
I12
tp198
sbsI36
(iniveau
NiveauAction
p199
(dp200
g10
g11
sg12
I01
sg13
I99
sg14
(I800
I173
tp201
sg16
(I-49
I37
I-46
tp202
sg18
g19
sg20
I36
sg21
(I10
I10
tp203
sbsI37
(iniveau
NiveauAction
p204
(dp205
g10
g11
sg12
I01
sg13
I102
sg14
(I800
I236
tp206
sg16
(I-56
I10
I-146
tp207
sg18
g19
sg20
I37
sg21
(I39
I39
tp208
sbsI38
(iniveau
NiveauAction
p209
(dp210
g10
g11
sg12
I01
sg13
I103
sg14
(I800
I97
tp211
sg16
(I-63
I34
I-69
tp212
sg18
g19
sg20
I38
sg21
(I29
I29
tp213
sbsI39
(iniveau
NiveauAction
p214
(dp215
g10
g11
sg12
I01
sg13
I107
sg14
(I800
I411
tp216
sg16
(I-24
I-15
I-31
tp217
sg18
g19
sg20
I39
sg21
(I83
I83
tp218
sbsI40
(iniveau
NiveauAction
p219
(dp220
g10
g11
sg12
I01
sg13
I109
sg14
(I800
I30
tp221
sg16
(I-52
I6
I-152
tp222
sg18
g19
sg20
I40
sg21
(I92
I92
tp223
sbsI41
(iniveau
NiveauAction
p224
(dp225
g10
g11
sg12
I01
sg13
I110
sg14
(I800
I49
tp226
sg16
(I-79
I18
I50
tp227
sg18
g19
sg20
I41
sg21
(I30
I30
tp228
sbsI42
(iniveau
NiveauAction
p229
(dp230
g10
g11
sg12
I01
sg13
I111
sg14
(I800
I158
tp231
sg16
(I-52
I-37
I115
tp232
sg18
g19
sg20
I42
sg21
(I69
I69
tp233
sbsI43
(iniveau
NiveauAction
p234
(dp235
g10
g11
sg12
I01
sg13
I112
sg14
(I800
I233
tp236
sg16
(I-24
I-13
I-177
tp237
sg18
g19
sg20
I43
sg21
(I57
I57
tp238
sbsI44
(iniveau
NiveauAction
p239
(dp240
g10
g11
sg12
I01
sg13
I115
sg14
(I800
I225
tp241
sg16
(I-56
I-31
I-34
tp242
sg18
g19
sg20
I44
sg21
(I100
I100
tp243
sbsI45
(iniveau
NiveauAction
p244
(dp245
g10
g11
sg12
I01
sg13
I119
sg14
(I800
I117
tp246
sg16
(I-20
I-3
I22
tp247
sg18
g19
sg20
I45
sg21
(I13
I13
tp248
sbsI46
(iniveau
NiveauAction
p249
(dp250
g10
g11
sg12
I01
sg13
I121
sg14
(I800
I77
tp251
sg16
(I-100
I-40
I84
tp252
sg18
g19
sg20
I46
sg21
(I41
I41
tp253
sbsI47
(iniveau
NiveauAction
p254
(dp255
g10
g11
sg12
I01
sg13
I122
sg14
(I800
I147
tp256
sg16
(I-65
I-37
I-110
tp257
sg18
g19
sg20
I47
sg21
(I12
I12
tp258
sbsI48
(iniveau
NiveauAction
p259
(dp260
g10
g11
sg12
I01
sg13
I124
sg14
(I800
I286
tp261
sg16
(I-34
I43
I-43
tp262
sg18
g19
sg20
I48
sg21
(I22
I22
tp263
sbsI49
(iniveau
NiveauAction
p264
(dp265
g10
g11
sg12
I01
sg13
I126
sg14
(I800
I118
tp266
sg16
(I-84
I-1
I80
tp267
sg18
g19
sg20
I49
sg21
(I30
I30
tp268
sbsI50
(iniveau
NiveauAction
p269
(dp270
g10
g11
sg12
I01
sg13
I127
sg14
(I800
I386
tp271
sg16
(I-89
I-3
I-97
tp272
sg18
g19
sg20
I50
sg21
(I76
I76
tp273
sbsI51
(iniveau
NiveauAction
p274
(dp275
g10
g11
sg12
I01
sg13
I130
sg14
(I800
I384
tp276
sg16
(I-38
I8
I1
tp277
sg18
g19
sg20
I51
sg21
(I30
I30
tp278
sbsI52
(iniveau
NiveauAction
p279
(dp280
g10
g11
sg12
I01
sg13
I132
sg14
(I800
I391
tp281
sg16
(I-26
I-26
I-26
tp282
sg18
g19
sg20
I52
sg21
(I78
I78
tp283
sbsI53
(iniveau
NiveauAction
p284
(dp285
g10
g11
sg12
I01
sg13
I135
sg14
(I800
I13
tp286
sg16
(I-82
I48
I-110
tp287
sg18
g19
sg20
I53
sg21
(I89
I89
tp288
sbsI54
(iniveau
NiveauAction
p289
(dp290
g10
g11
sg12
I01
sg13
I136
sg14
(I800
I340
tp291
sg16
(I-82
I9
I-117
tp292
sg18
g19
sg20
I54
sg21
(I36
I36
tp293
sbsI55
(iniveau
NiveauAction
p294
(dp295
g10
g11
sg12
I01
sg13
I137
sg14
(I800
I317
tp296
sg16
(I-51
I19
I131
tp297
sg18
g19
sg20
I55
sg21
(I19
I19
tp298
sbsI56
(iniveau
NiveauAction
p299
(dp300
g10
g11
sg12
I01
sg13
I139
sg14
(I800
I245
tp301
sg16
(I-53
I17
I27
tp302
sg18
g19
sg20
I56
sg21
(I30
I30
tp303
sbsI57
(iniveau
NiveauAction
p304
(dp305
g10
g11
sg12
I01
sg13
I143
sg14
(I800
I212
tp306
sg16
(I-26
I-10
I-72
tp307
sg18
g19
sg20
I57
sg21
(I39
I39
tp308
sbsI58
(iniveau
NiveauAction
p309
(dp310
g10
g11
sg12
I01
sg13
I144
sg14
(I800
I383
tp311
sg16
(I-87
I49
I-46
tp312
sg18
g19
sg20
I58
sg21
(I25
I25
tp313
sbsI59
(iniveau
NiveauAction
p314
(dp315
g10
g11
sg12
I01
sg13
I145
sg14
(I800
I402
tp316
sg16
(I-31
I31
I-128
tp317
sg18
g19
sg20
I59
sg21
(I56
I56
tp318
sbsI60
(iniveau
NiveauAction
p319
(dp320
g10
g11
sg12
I01
sg13
I149
sg14
(I800
I34
tp321
sg16
(I-72
I23
I172
tp322
sg18
g19
sg20
I60
sg21
(I51
I51
tp323
sbsI61
(iniveau
NiveauAction
p324
(dp325
g10
g11
sg12
I01
sg13
I153
sg14
(I800
I135
tp326
sg16
(I-79
I-32
I-1
tp327
sg18
g19
sg20
I61
sg21
(I30
I30
tp328
sbsI62
(iniveau
NiveauAction
p329
(dp330
g10
g11
sg12
I01
sg13
I154
sg14
(I800
I316
tp331
sg16
(I-41
I9
I77
tp332
sg18
g19
sg20
I62
sg21
(I38
I38
tp333
sbsI63
(iniveau
NiveauAction
p334
(dp335
g10
g11
sg12
I01
sg13
I157
sg14
(I800
I198
tp336
sg16
(I-91
I19
I116
tp337
sg18
g19
sg20
I63
sg21
(I91
I91
tp338
sbsI64
(iniveau
NiveauAction
p339
(dp340
g10
g11
sg12
I01
sg13
I158
sg14
(I800
I416
tp341
sg16
(I-23
I-13
I-97
tp342
sg18
g19
sg20
I64
sg21
(I14
I14
tp343
sbsI65
(iniveau
NiveauAction
p344
(dp345
g10
g11
sg12
I01
sg13
I159
sg14
(I800
I293
tp346
sg16
(I-94
I50
I147
tp347
sg18
g19
sg20
I65
sg21
(I22
I22
tp348
sbsI66
(iniveau
NiveauAction
p349
(dp350
g10
g11
sg12
I01
sg13
I162
sg14
(I800
I260
tp351
sg16
(I-59
I9
I162
tp352
sg18
g19
sg20
I66
sg21
(I13
I13
tp353
sbsI67
(iniveau
NiveauAction
p354
(dp355
g10
g11
sg12
I01
sg13
I163
sg14
(I800
I90
tp356
sg16
(I-94
I-9
I131
tp357
sg18
g19
sg20
I67
sg21
(I63
I63
tp358
sbsI68
(iniveau
NiveauAction
p359
(dp360
g10
g11
sg12
I01
sg13
I166
sg14
(I800
I105
tp361
sg16
(I-20
I37
I-85
tp362
sg18
g19
sg20
I68
sg21
(I85
I85
tp363
sbsI69
(iniveau
NiveauAction
p364
(dp365
g10
g11
sg12
I01
sg13
I168
sg14
(I800
I263
tp366
sg16
(I-47
I-31
I-20
tp367
sg18
g19
sg20
I69
sg21
(I61
I61
tp368
sbsI70
(iniveau
NiveauAction
p369
(dp370
g10
g11
sg12
I01
sg13
I169
sg14
(I800
I124
tp371
sg16
(I-30
I-1
I13
tp372
sg18
g19
sg20
I70
sg21
(I64
I64
tp373
sbsI71
(iniveau
NiveauAction
p374
(dp375
g10
g11
sg12
I01
sg13
I170
sg14
(I800
I68
tp376
sg16
(I-98
I-46
I32
tp377
sg18
g19
sg20
I71
sg21
(I65
I65
tp378
sbsI72
(iniveau
NiveauAction
p379
(dp380
g10
g11
sg12
I01
sg13
I174
sg14
(I800
I322
tp381
sg16
(I-82
I-44
I8
tp382
sg18
g19
sg20
I72
sg21
(I45
I45
tp383
sbsI73
(iniveau
NiveauAction
p384
(dp385
g10
g105
sg12
I00
sg13
I178
sg14
(I800
I109
tp386
sg16
(I-40
I42
I-40
tp387
sg18
g19
sg20
I73
sg21
(I41
I41
tp388
sbsI74
(iniveau
NiveauAction
p389
(dp390
g10
g11
sg12
I01
sg13
I179
sg14
(I800
I207
tp391
sg16
(I-40
I30
I-77
tp392
sg18
g19
sg20
I74
sg21
(I10
I10
tp393
sbsI75
(iniveau
NiveauAction
p394
(dp395
g10
g11
sg12
I01
sg13
I180
sg14
(I800
I424
tp396
sg16
(I-88
I44
I125
tp397
sg18
g19
sg20
I75
sg21
(I22
I22
tp398
sbsI76
(iniveau
NiveauAction
p399
(dp400
g10
g11
sg12
I01
sg13
I184
sg14
(I800
I345
tp401
sg16
(I-37
I23
I143
tp402
sg18
g19
sg20
I76
sg21
(I19
I19
tp403
sbsI77
(iniveau
NiveauAction
p404
(dp405
g10
g105
sg12
I00
sg13
I188
sg14
(I800
I433
tp406
sg16
(I-73
I0
I-5
tp407
sg18
g19
sg20
I77
sg21
(I47
I47
tp408
sbsI78
(iniveau
NiveauAction
p409
(dp410
g10
g11
sg12
I01
sg13
I192
sg14
(I800
I252
tp411
sg16
(I-87
I31
I172
tp412
sg18
g19
sg20
I78
sg21
(I71
I71
tp413
sbsI79
(iniveau
NiveauAction
p414
(dp415
g10
g11
sg12
I01
sg13
I193
sg14
(I800
I454
tp416
sg16
(I-76
I-26
I-23
tp417
sg18
g19
sg20
I79
sg21
(I12
I12
tp418
sbsI80
(iniveau
NiveauAction
p419
(dp420
g10
g11
sg12
I01
sg13
I197
sg14
(I800
I284
tp421
sg16
(I-61
I4
I157
tp422
sg18
g19
sg20
I80
sg21
(I66
I66
tp423
sbsI81
(iniveau
NiveauAction
p424
(dp425
g10
g11
sg12
I01
sg13
I199
sg14
(I800
I453
tp426
sg16
(I-81
I12
I113
tp427
sg18
g19
sg20
I81
sg21
(I11
I11
tp428
sbsI82
(iniveau
NiveauAction
p429
(dp430
g10
g11
sg12
I01
sg13
I202
sg14
(I800
I355
tp431
sg16
(I-23
I-7
I-138
tp432
sg18
g19
sg20
I82
sg21
(I87
I87
tp433
sbsI83
(iniveau
NiveauAction
p434
(dp435
g10
g105
sg12
I00
sg13
I204
sg14
(I800
I262
tp436
sg16
(I-29
I49
I-135
tp437
sg18
g19
sg20
I83
sg21
(I57
I57
tp438
sbsI84
(iniveau
NiveauAction
p439
(dp440
g10
g11
sg12
I01
sg13
I205
sg14
(I800
I376
tp441
sg16
(I-91
I-8
I33
tp442
sg18
g19
sg20
I84
sg21
(I54
I54
tp443
sbsI85
(iniveau
NiveauAction
p444
(dp445
g10
g11
sg12
I01
sg13
I206
sg14
(I800
I180
tp446
sg16
(I-70
I5
I-147
tp447
sg18
g19
sg20
I85
sg21
(I61
I61
tp448
sbsI86
(iniveau
NiveauAction
p449
(dp450
g10
g11
sg12
I01
sg13
I209
sg14
(I800
I30
tp451
sg16
(I-20
I-2
I0
tp452
sg18
g19
sg20
I86
sg21
(I77
I77
tp453
sbsI87
(iniveau
NiveauAction
p454
(dp455
g10
g11
sg12
I01
sg13
I211
sg14
(I800
I117
tp456
sg16
(I-43
I-10
I150
tp457
sg18
g19
sg20
I87
sg21
(I66
I66
tp458
sbsI88
(iniveau
NiveauAction
p459
(dp460
g10
g11
sg12
I01
sg13
I213
sg14
(I800
I367
tp461
sg16
(I-90
I-42
I-88
tp462
sg18
g19
sg20
I88
sg21
(I63
I63
tp463
sbsI89
(iniveau
NiveauAction
p464
(dp465
g10
g11
sg12
I01
sg13
I217
sg14
(I800
I327
tp466
sg16
(I-36
I-34
I-89
tp467
sg18
g19
sg20
I89
sg21
(I32
I32
tp468
sbsI90
(iniveau
NiveauAction
p469
(dp470
g10
g11
sg12
I01
sg13
I218
sg14
(I800
I320
tp471
sg16
(I-92
I47
I153
tp472
sg18
g19
sg20
I90
sg21
(I48
I48
tp473
sbsI91
(iniveau
NiveauAction
p474
(dp475
g10
g11
sg12
I01
sg13
I222
sg14
(I800
I209
tp476
sg16
(I-62
I9
I-127
tp477
sg18
g19
sg20
I91
sg21
(I20
I20
tp478
sbsI92
(iniveau
NiveauAction
p479
(dp480
g10
g11
sg12
I01
sg13
I224
sg14
(I800
I158
tp481
sg16
(I-84
I22
I-86
tp482
sg18
g19
sg20
I92
sg21
(I83
I83
tp483
sbsI93
(iniveau
NiveauAction
p484
(dp485
g10
g105
sg12
I00
sg13
I226
sg14
(I800
I332
tp486
sg16
(I-89
I-14
I-31
tp487
sg18
g19
sg20
I93
sg21
(I72
I72
tp488
sbsI94
(iniveau
NiveauAction
p489
(dp490
g10
g11
sg12
I01
sg13
I228
sg14
(I800
I335
tp491
sg16
(I-73
I-16
I-10
tp492
sg18
g19
sg20
I94
sg21
(I42
I42
tp493
sbsI95
(iniveau
NiveauAction
p494
(dp495
g10
g11
sg12
I01
sg13
I229
sg14
(I800
I260
tp496
sg16
(I-62
I-12
I54
tp497
sg18
g19
sg20
I95
sg21
(I65
I65
tp498
sbsI96
(iniveau
NiveauAction
p499
(dp500
g10
g11
sg12
I01
sg13
I231
sg14
(I800
I6
tp501
sg16
(I-86
I-24
I69
tp502
sg18
g19
sg20
I96
sg21
(I68
I68
tp503
sbsI97
(iniveau
NiveauAction
p504
(dp505
g10
g11
sg12
I01
sg13
I235
sg14
(I800
I327
tp506
sg16
(I-49
I-29
I-41
tp507
sg18
g19
sg20
I97
sg21
(I17
I17
tp508
sbsI98
(iniveau
NiveauAction
p509
(dp510
g10
g11
sg12
I01
sg13
I237
sg14
(I800
I100
tp511
sg16
(I-79
I-20
I63
tp512
sg18
g19
sg20
I98
sg21
(I46
I46
tp513
sbsI99
(iniveau
NiveauAction
p514
(dp515
g10
g105
sg12
I00
sg13
I241
sg14
(I800
I437
tp516
sg16
(I-86
I-13
I44
tp517
sg18
g19
sg20
I99
sg21
(I43
I43
tp518
sbssg20
S'1-x33b'
p519
sb.