(iniveau
NiveauGenerated
p0
(dp1
S'image'
p2
S'images/space2.jpg'
p3
sS'name'
p4
S'niveau 2 - planete ZOOZ'
p5
sS'actions'
p6
(dp7
I0
(iniveau
NiveauAction
p8
(dp9
S'object'
p10
S'Asteroid'
p11
sS'isDeco'
p12
I00
sS'time'
p13
I0
sS'position'
p14
(I800
I312
tp15
sS'movement'
p16
(I-58
I13
I-141
tp17
sS'type'
p18
S'create'
p19
sS'id'
p20
I0
sS'size'
p21
(I64
I64
tp22
sbsI1
(iniveau
NiveauAction
p23
(dp24
g10
g11
sg12
I00
sg13
I1
sg14
(I800
I47
tp25
sg16
(I-71
I17
I80
tp26
sg18
g19
sg20
I1
sg21
(I42
I42
tp27
sbsI2
(iniveau
NiveauAction
p28
(dp29
g10
g11
sg12
I00
sg13
I5
sg14
(I800
I44
tp30
sg16
(I-68
I44
I143
tp31
sg18
g19
sg20
I2
sg21
(I61
I61
tp32
sbsI3
(iniveau
NiveauAction
p33
(dp34
g10
g11
sg12
I00
sg13
I9
sg14
(I800
I89
tp35
sg16
(I-31
I-48
I-30
tp36
sg18
g19
sg20
I3
sg21
(I61
I61
tp37
sbsI4
(iniveau
NiveauAction
p38
(dp39
g10
S'AsteroidDeco'
p40
sg12
I01
sg13
I11
sg14
(I800
I77
tp41
sg16
(I-85
I-50
I70
tp42
sg18
g19
sg20
I4
sg21
(I75
I75
tp43
sbsI5
(iniveau
NiveauAction
p44
(dp45
g10
g11
sg12
I00
sg13
I11
sg14
(I800
I248
tp46
sg16
(I-75
I-46
I-12
tp47
sg18
g19
sg20
I5
sg21
(I91
I91
tp48
sbsI6
(iniveau
NiveauAction
p49
(dp50
g10
g11
sg12
I00
sg13
I11
sg14
(I800
I300
tp51
sg16
(I-31
I3
I145
tp52
sg18
g19
sg20
I6
sg21
(I50
I50
tp53
sbsI7
(iniveau
NiveauAction
p54
(dp55
g10
g11
sg12
I00
sg13
I12
sg14
(I800
I500
tp56
sg16
(I-69
I-8
I-175
tp57
sg18
g19
sg20
I7
sg21
(I66
I66
tp58
sbsI8
(iniveau
NiveauAction
p59
(dp60
g10
g40
sg12
I01
sg13
I15
sg14
(I800
I271
tp61
sg16
(I-88
I-20
I12
tp62
sg18
g19
sg20
I8
sg21
(I34
I34
tp63
sbsI9
(iniveau
NiveauAction
p64
(dp65
g10
g40
sg12
I01
sg13
I19
sg14
(I800
I204
tp66
sg16
(I-96
I29
I146
tp67
sg18
g19
sg20
I9
sg21
(I67
I67
tp68
sbsI10
(iniveau
NiveauAction
p69
(dp70
g10
g11
sg12
I00
sg13
I21
sg14
(I800
I264
tp71
sg16
(I-85
I-48
I1
tp72
sg18
g19
sg20
I10
sg21
(I36
I36
tp73
sbsI11
(iniveau
NiveauAction
p74
(dp75
g10
g11
sg12
I00
sg13
I23
sg14
(I800
I39
tp76
sg16
(I-35
I5
I-163
tp77
sg18
g19
sg20
I11
sg21
(I11
I11
tp78
sbsI12
(iniveau
NiveauAction
p79
(dp80
g10
g40
sg12
I01
sg13
I25
sg14
(I800
I405
tp81
sg16
(I-81
I23
I90
tp82
sg18
g19
sg20
I12
sg21
(I79
I79
tp83
sbsI13
(iniveau
NiveauAction
p84
(dp85
g10
g40
sg12
I01
sg13
I29
sg14
(I800
I23
tp86
sg16
(I-87
I8
I-7
tp87
sg18
g19
sg20
I13
sg21
(I90
I90
tp88
sbsI14
(iniveau
NiveauAction
p89
(dp90
g10
g40
sg12
I01
sg13
I32
sg14
(I800
I496
tp91
sg16
(I-71
I36
I-180
tp92
sg18
g19
sg20
I14
sg21
(I86
I86
tp93
sbsI15
(iniveau
NiveauAction
p94
(dp95
g10
g40
sg12
I01
sg13
I35
sg14
(I800
I339
tp96
sg16
(I-62
I3
I-60
tp97
sg18
g19
sg20
I15
sg21
(I14
I14
tp98
sbsI16
(iniveau
NiveauAction
p99
(dp100
g10
g11
sg12
I00
sg13
I37
sg14
(I800
I406
tp101
sg16
(I-66
I-5
I-39
tp102
sg18
g19
sg20
I16
sg21
(I53
I53
tp103
sbsI17
(iniveau
NiveauAction
p104
(dp105
g10
g40
sg12
I01
sg13
I38
sg14
(I800
I103
tp106
sg16
(I-65
I-18
I159
tp107
sg18
g19
sg20
I17
sg21
(I30
I30
tp108
sbsI18
(iniveau
NiveauAction
p109
(dp110
g10
g11
sg12
I00
sg13
I40
sg14
(I800
I53
tp111
sg16
(I-94
I-41
I-20
tp112
sg18
g19
sg20
I18
sg21
(I87
I87
tp113
sbsI19
(iniveau
NiveauAction
p114
(dp115
g10
g40
sg12
I01
sg13
I44
sg14
(I800
I43
tp116
sg16
(I-42
I-42
I50
tp117
sg18
g19
sg20
I19
sg21
(I54
I54
tp118
sbsI20
(iniveau
NiveauAction
p119
(dp120
g10
g11
sg12
I00
sg13
I45
sg14
(I800
I434
tp121
sg16
(I-81
I50
I179
tp122
sg18
g19
sg20
I20
sg21
(I99
I99
tp123
sbsI21
(iniveau
NiveauAction
p124
(dp125
g10
g40
sg12
I01
sg13
I46
sg14
(I800
I440
tp126
sg16
(I-95
I27
I123
tp127
sg18
g19
sg20
I21
sg21
(I11
I11
tp128
sbsI22
(iniveau
NiveauAction
p129
(dp130
g10
g40
sg12
I01
sg13
I50
sg14
(I800
I171
tp131
sg16
(I-21
I50
I86
tp132
sg18
g19
sg20
I22
sg21
(I59
I59
tp133
sbsI23
(iniveau
NiveauAction
p134
(dp135
g10
g11
sg12
I00
sg13
I54
sg14
(I800
I347
tp136
sg16
(I-53
I-40
I14
tp137
sg18
g19
sg20
I23
sg21
(I96
I96
tp138
sbsI24
(iniveau
NiveauAction
p139
(dp140
g10
g11
sg12
I00
sg13
I54
sg14
(I800
I442
tp141
sg16
(I-35
I-34
I174
tp142
sg18
g19
sg20
I24
sg21
(I55
I55
tp143
sbsI25
(iniveau
NiveauAction
p144
(dp145
g10
g40
sg12
I01
sg13
I54
sg14
(I800
I155
tp146
sg16
(I-94
I12
I-76
tp147
sg18
g19
sg20
I25
sg21
(I98
I98
tp148
sbsI26
(iniveau
NiveauAction
p149
(dp150
g10
g11
sg12
I00
sg13
I56
sg14
(I800
I86
tp151
sg16
(I-31
I-49
I-48
tp152
sg18
g19
sg20
I26
sg21
(I71
I71
tp153
sbsI27
(iniveau
NiveauAction
p154
(dp155
g10
g11
sg12
I00
sg13
I59
sg14
(I800
I443
tp156
sg16
(I-41
I-17
I-42
tp157
sg18
g19
sg20
I27
sg21
(I54
I54
tp158
sbsI28
(iniveau
NiveauAction
p159
(dp160
g10
g11
sg12
I00
sg13
I62
sg14
(I800
I97
tp161
sg16
(I-45
I43
I17
tp162
sg18
g19
sg20
I28
sg21
(I27
I27
tp163
sbsI29
(iniveau
NiveauAction
p164
(dp165
g10
g40
sg12
I01
sg13
I63
sg14
(I800
I420
tp166
sg16
(I-23
I4
I169
tp167
sg18
g19
sg20
I29
sg21
(I30
I30
tp168
sbsI30
(iniveau
NiveauAction
p169
(dp170
g10
g40
sg12
I01
sg13
I66
sg14
(I800
I154
tp171
sg16
(I-54
I-50
I-119
tp172
sg18
g19
sg20
I30
sg21
(I39
I39
tp173
sbsI31
(iniveau
NiveauAction
p174
(dp175
g10
g40
sg12
I01
sg13
I69
sg14
(I800
I267
tp176
sg16
(I-46
I36
I-152
tp177
sg18
g19
sg20
I31
sg21
(I93
I93
tp178
sbsI32
(iniveau
NiveauAction
p179
(dp180
g10
g11
sg12
I00
sg13
I71
sg14
(I800
I309
tp181
sg16
(I-93
I8
I-13
tp182
sg18
g19
sg20
I32
sg21
(I81
I81
tp183
sbsI33
(iniveau
NiveauAction
p184
(dp185
g10
g40
sg12
I01
sg13
I74
sg14
(I800
I73
tp186
sg16
(I-68
I-22
I-114
tp187
sg18
g19
sg20
I33
sg21
(I29
I29
tp188
sbsI34
(iniveau
NiveauAction
p189
(dp190
g10
g11
sg12
I00
sg13
I74
sg14
(I800
I150
tp191
sg16
(I-94
I-46
I-130
tp192
sg18
g19
sg20
I34
sg21
(I73
I73
tp193
sbsI35
(iniveau
NiveauAction
p194
(dp195
g10
g11
sg12
I00
sg13
I75
sg14
(I800
I383
tp196
sg16
(I-97
I-35
I-68
tp197
sg18
g19
sg20
I35
sg21
(I18
I18
tp198
sbsI36
(iniveau
NiveauAction
p199
(dp200
g10
g11
sg12
I00
sg13
I79
sg14
(I800
I63
tp201
sg16
(I-98
I12
I104
tp202
sg18
g19
sg20
I36
sg21
(I81
I81
tp203
sbsI37
(iniveau
NiveauAction
p204
(dp205
g10
g40
sg12
I01
sg13
I81
sg14
(I800
I338
tp206
sg16
(I-84
I19
I-25
tp207
sg18
g19
sg20
I37
sg21
(I95
I95
tp208
sbsI38
(iniveau
NiveauAction
p209
(dp210
g10
g11
sg12
I00
sg13
I83
sg14
(I800
I249
tp211
sg16
(I-21
I-16
I-34
tp212
sg18
g19
sg20
I38
sg21
(I13
I13
tp213
sbsI39
(iniveau
NiveauAction
p214
(dp215
g10
g40
sg12
I01
sg13
I83
sg14
(I800
I387
tp216
sg16
(I-62
I44
I101
tp217
sg18
g19
sg20
I39
sg21
(I54
I54
tp218
sbsI40
(iniveau
NiveauAction
p219
(dp220
g10
g40
sg12
I01
sg13
I84
sg14
(I800
I31
tp221
sg16
(I-81
I25
I-175
tp222
sg18
g19
sg20
I40
sg21
(I38
I38
tp223
sbsI41
(iniveau
NiveauAction
p224
(dp225
g10
g11
sg12
I00
sg13
I87
sg14
(I800
I203
tp226
sg16
(I-67
I-28
I129
tp227
sg18
g19
sg20
I41
sg21
(I97
I97
tp228
sbsI42
(iniveau
NiveauAction
p229
(dp230
g10
g40
sg12
I01
sg13
I89
sg14
(I800
I129
tp231
sg16
(I-48
I1
I23
tp232
sg18
g19
sg20
I42
sg21
(I29
I29
tp233
sbsI43
(iniveau
NiveauAction
p234
(dp235
g10
g11
sg12
I00
sg13
I93
sg14
(I800
I60
tp236
sg16
(I-48
I-10
I-104
tp237
sg18
g19
sg20
I43
sg21
(I67
I67
tp238
sbsI44
(iniveau
NiveauAction
p239
(dp240
g10
g11
sg12
I00
sg13
I96
sg14
(I800
I399
tp241
sg16
(I-29
I-44
I-165
tp242
sg18
g19
sg20
I44
sg21
(I85
I85
tp243
sbsI45
(iniveau
NiveauAction
p244
(dp245
g10
g11
sg12
I00
sg13
I97
sg14
(I800
I315
tp246
sg16
(I-96
I28
I90
tp247
sg18
g19
sg20
I45
sg21
(I56
I56
tp248
sbsI46
(iniveau
NiveauAction
p249
(dp250
g10
g40
sg12
I01
sg13
I101
sg14
(I800
I124
tp251
sg16
(I-88
I-31
I160
tp252
sg18
g19
sg20
I46
sg21
(I44
I44
tp253
sbsI47
(iniveau
NiveauAction
p254
(dp255
g10
g40
sg12
I01
sg13
I105
sg14
(I800
I274
tp256
sg16
(I-49
I47
I-175
tp257
sg18
g19
sg20
I47
sg21
(I17
I17
tp258
sbsI48
(iniveau
NiveauAction
p259
(dp260
g10
g40
sg12
I01
sg13
I106
sg14
(I800
I64
tp261
sg16
(I-97
I6
I-76
tp262
sg18
g19
sg20
I48
sg21
(I29
I29
tp263
sbsI49
(iniveau
NiveauAction
p264
(dp265
g10
g40
sg12
I01
sg13
I110
sg14
(I800
I308
tp266
sg16
(I-60
I-48
I13
tp267
sg18
g19
sg20
I49
sg21
(I94
I94
tp268
sbsI50
(iniveau
NiveauAction
p269
(dp270
g10
g11
sg12
I00
sg13
I112
sg14
(I800
I484
tp271
sg16
(I-49
I-10
I-101
tp272
sg18
g19
sg20
I50
sg21
(I35
I35
tp273
sbsI51
(iniveau
NiveauAction
p274
(dp275
g10
g40
sg12
I01
sg13
I115
sg14
(I800
I294
tp276
sg16
(I-74
I-45
I24
tp277
sg18
g19
sg20
I51
sg21
(I91
I91
tp278
sbsI52
(iniveau
NiveauAction
p279
(dp280
g10
g11
sg12
I00
sg13
I117
sg14
(I800
I176
tp281
sg16
(I-27
I-17
I115
tp282
sg18
g19
sg20
I52
sg21
(I28
I28
tp283
sbsI53
(iniveau
NiveauAction
p284
(dp285
g10
g11
sg12
I00
sg13
I119
sg14
(I800
I394
tp286
sg16
(I-87
I-37
I29
tp287
sg18
g19
sg20
I53
sg21
(I93
I93
tp288
sbsI54
(iniveau
NiveauAction
p289
(dp290
g10
g40
sg12
I01
sg13
I119
sg14
(I800
I124
tp291
sg16
(I-72
I22
I-75
tp292
sg18
g19
sg20
I54
sg21
(I30
I30
tp293
sbsI55
(iniveau
NiveauAction
p294
(dp295
g10
g40
sg12
I01
sg13
I122
sg14
(I800
I345
tp296
sg16
(I-84
I11
I-142
tp297
sg18
g19
sg20
I55
sg21
(I74
I74
tp298
sbsI56
(iniveau
NiveauAction
p299
(dp300
g10
g40
sg12
I01
sg13
I126
sg14
(I800
I257
tp301
sg16
(I-55
I-29
I41
tp302
sg18
g19
sg20
I56
sg21
(I44
I44
tp303
sbsI57
(iniveau
NiveauAction
p304
(dp305
g10
g40
sg12
I01
sg13
I130
sg14
(I800
I320
tp306
sg16
(I-39
I37
I-75
tp307
sg18
g19
sg20
I57
sg21
(I40
I40
tp308
sbsI58
(iniveau
NiveauAction
p309
(dp310
g10
g11
sg12
I00
sg13
I130
sg14
(I800
I359
tp311
sg16
(I-49
I-36
I178
tp312
sg18
g19
sg20
I58
sg21
(I52
I52
tp313
sbsI59
(iniveau
NiveauAction
p314
(dp315
g10
g40
sg12
I01
sg13
I134
sg14
(I800
I187
tp316
sg16
(I-30
I-28
I-19
tp317
sg18
g19
sg20
I59
sg21
(I26
I26
tp318
sbsI60
(iniveau
NiveauAction
p319
(dp320
g10
g40
sg12
I01
sg13
I137
sg14
(I800
I414
tp321
sg16
(I-98
I-12
I112
tp322
sg18
g19
sg20
I60
sg21
(I63
I63
tp323
sbsI61
(iniveau
NiveauAction
p324
(dp325
g10
g11
sg12
I00
sg13
I138
sg14
(I800
I95
tp326
sg16
(I-23
I3
I123
tp327
sg18
g19
sg20
I61
sg21
(I43
I43
tp328
sbsI62
(iniveau
NiveauAction
p329
(dp330
g10
g40
sg12
I01
sg13
I139
sg14
(I800
I247
tp331
sg16
(I-99
I47
I150
tp332
sg18
g19
sg20
I62
sg21
(I83
I83
tp333
sbsI63
(iniveau
NiveauAction
p334
(dp335
g10
g40
sg12
I01
sg13
I140
sg14
(I800
I485
tp336
sg16
(I-99
I33
I41
tp337
sg18
g19
sg20
I63
sg21
(I48
I48
tp338
sbsI64
(iniveau
NiveauAction
p339
(dp340
g10
g40
sg12
I01
sg13
I142
sg14
(I800
I112
tp341
sg16
(I-20
I9
I-34
tp342
sg18
g19
sg20
I64
sg21
(I97
I97
tp343
sbsI65
(iniveau
NiveauAction
p344
(dp345
g10
g11
sg12
I00
sg13
I142
sg14
(I800
I183
tp346
sg16
(I-42
I4
I44
tp347
sg18
g19
sg20
I65
sg21
(I30
I30
tp348
sbsI66
(iniveau
NiveauAction
p349
(dp350
g10
g40
sg12
I01
sg13
I143
sg14
(I800
I304
tp351
sg16
(I-81
I17
I-84
tp352
sg18
g19
sg20
I66
sg21
(I39
I39
tp353
sbsI67
(iniveau
NiveauAction
p354
(dp355
g10
g11
sg12
I00
sg13
I144
sg14
(I800
I83
tp356
sg16
(I-52
I-28
I-77
tp357
sg18
g19
sg20
I67
sg21
(I27
I27
tp358
sbsI68
(iniveau
NiveauAction
p359
(dp360
g10
g40
sg12
I01
sg13
I147
sg14
(I800
I86
tp361
sg16
(I-43
I-8
I-142
tp362
sg18
g19
sg20
I68
sg21
(I82
I82
tp363
sbsI69
(iniveau
NiveauAction
p364
(dp365
g10
g11
sg12
I00
sg13
I151
sg14
(I800
I158
tp366
sg16
(I-80
I-13
I22
tp367
sg18
g19
sg20
I69
sg21
(I55
I55
tp368
sbsI70
(iniveau
NiveauAction
p369
(dp370
g10
g40
sg12
I01
sg13
I155
sg14
(I800
I144
tp371
sg16
(I-51
I-20
I136
tp372
sg18
g19
sg20
I70
sg21
(I39
I39
tp373
sbsI71
(iniveau
NiveauAction
p374
(dp375
g10
g40
sg12
I01
sg13
I156
sg14
(I800
I302
tp376
sg16
(I-90
I-23
I-172
tp377
sg18
g19
sg20
I71
sg21
(I61
I61
tp378
sbsI72
(iniveau
NiveauAction
p379
(dp380
g10
g40
sg12
I01
sg13
I158
sg14
(I800
I275
tp381
sg16
(I-51
I-17
I81
tp382
sg18
g19
sg20
I72
sg21
(I39
I39
tp383
sbsI73
(iniveau
NiveauAction
p384
(dp385
g10
g40
sg12
I01
sg13
I160
sg14
(I800
I322
tp386
sg16
(I-80
I-43
I-138
tp387
sg18
g19
sg20
I73
sg21
(I10
I10
tp388
sbsI74
(iniveau
NiveauAction
p389
(dp390
g10
g40
sg12
I01
sg13
I161
sg14
(I800
I69
tp391
sg16
(I-64
I35
I-9
tp392
sg18
g19
sg20
I74
sg21
(I33
I33
tp393
sbsI75
(iniveau
NiveauAction
p394
(dp395
g10
g40
sg12
I01
sg13
I161
sg14
(I800
I475
tp396
sg16
(I-94
I-11
I-34
tp397
sg18
g19
sg20
I75
sg21
(I35
I35
tp398
sbsI76
(iniveau
NiveauAction
p399
(dp400
g10
g40
sg12
I01
sg13
I165
sg14
(I800
I336
tp401
sg16
(I-89
I15
I101
tp402
sg18
g19
sg20
I76
sg21
(I45
I45
tp403
sbsI77
(iniveau
NiveauAction
p404
(dp405
g10
g40
sg12
I01
sg13
I167
sg14
(I800
I387
tp406
sg16
(I-81
I-23
I149
tp407
sg18
g19
sg20
I77
sg21
(I57
I57
tp408
sbsI78
(iniveau
NiveauAction
p409
(dp410
g10
g40
sg12
I01
sg13
I170
sg14
(I800
I7
tp411
sg16
(I-75
I37
I-38
tp412
sg18
g19
sg20
I78
sg21
(I86
I86
tp413
sbsI79
(iniveau
NiveauAction
p414
(dp415
g10
g11
sg12
I00
sg13
I170
sg14
(I800
I249
tp416
sg16
(I-21
I32
I86
tp417
sg18
g19
sg20
I79
sg21
(I99
I99
tp418
sbsI80
(iniveau
NiveauAction
p419
(dp420
g10
g11
sg12
I00
sg13
I171
sg14
(I800
I392
tp421
sg16
(I-23
I2
I-82
tp422
sg18
g19
sg20
I80
sg21
(I55
I55
tp423
sbsI81
(iniveau
NiveauAction
p424
(dp425
g10
g11
sg12
I00
sg13
I175
sg14
(I800
I364
tp426
sg16
(I-49
I19
I-159
tp427
sg18
g19
sg20
I81
sg21
(I89
I89
tp428
sbsI82
(iniveau
NiveauAction
p429
(dp430
g10
g40
sg12
I01
sg13
I176
sg14
(I800
I375
tp431
sg16
(I-41
I-3
I86
tp432
sg18
g19
sg20
I82
sg21
(I84
I84
tp433
sbsI83
(iniveau
NiveauAction
p434
(dp435
g10
g11
sg12
I00
sg13
I176
sg14
(I800
I446
tp436
sg16
(I-38
I-19
I39
tp437
sg18
g19
sg20
I83
sg21
(I27
I27
tp438
sbsI84
(iniveau
NiveauAction
p439
(dp440
g10
g11
sg12
I00
sg13
I177
sg14
(I800
I213
tp441
sg16
(I-69
I-29
I-30
tp442
sg18
g19
sg20
I84
sg21
(I16
I16
tp443
sbsI85
(iniveau
NiveauAction
p444
(dp445
g10
g40
sg12
I01
sg13
I181
sg14
(I800
I205
tp446
sg16
(I-34
I-47
I-157
tp447
sg18
g19
sg20
I85
sg21
(I24
I24
tp448
sbsI86
(iniveau
NiveauAction
p449
(dp450
g10
g11
sg12
I00
sg13
I181
sg14
(I800
I374
tp451
sg16
(I-23
I34
I39
tp452
sg18
g19
sg20
I86
sg21
(I59
I59
tp453
sbsI87
(iniveau
NiveauAction
p454
(dp455
g10
g40
sg12
I01
sg13
I183
sg14
(I800
I338
tp456
sg16
(I-46
I-17
I72
tp457
sg18
g19
sg20
I87
sg21
(I47
I47
tp458
sbsI88
(iniveau
NiveauAction
p459
(dp460
g10
g40
sg12
I01
sg13
I186
sg14
(I800
I109
tp461
sg16
(I-68
I20
I41
tp462
sg18
g19
sg20
I88
sg21
(I12
I12
tp463
sbsI89
(iniveau
NiveauAction
p464
(dp465
g10
g40
sg12
I01
sg13
I190
sg14
(I800
I287
tp466
sg16
(I-85
I-35
I134
tp467
sg18
g19
sg20
I89
sg21
(I12
I12
tp468
sbsI90
(iniveau
NiveauAction
p469
(dp470
g10
g40
sg12
I01
sg13
I190
sg14
(I800
I104
tp471
sg16
(I-81
I33
I-37
tp472
sg18
g19
sg20
I90
sg21
(I53
I53
tp473
sbsI91
(iniveau
NiveauAction
p474
(dp475
g10
g40
sg12
I01
sg13
I191
sg14
(I800
I270
tp476
sg16
(I-57
I21
I-74
tp477
sg18
g19
sg20
I91
sg21
(I83
I83
tp478
sbsI92
(iniveau
NiveauAction
p479
(dp480
g10
g40
sg12
I01
sg13
I194
sg14
(I800
I300
tp481
sg16
(I-93
I-6
I69
tp482
sg18
g19
sg20
I92
sg21
(I15
I15
tp483
sbsI93
(iniveau
NiveauAction
p484
(dp485
g10
g40
sg12
I01
sg13
I196
sg14
(I800
I490
tp486
sg16
(I-45
I-12
I56
tp487
sg18
g19
sg20
I93
sg21
(I91
I91
tp488
sbsI94
(iniveau
NiveauAction
p489
(dp490
g10
g11
sg12
I00
sg13
I200
sg14
(I800
I73
tp491
sg16
(I-42
I44
I-178
tp492
sg18
g19
sg20
I94
sg21
(I95
I95
tp493
sbsI95
(iniveau
NiveauAction
p494
(dp495
g10
g40
sg12
I01
sg13
I203
sg14
(I800
I89
tp496
sg16
(I-33
I29
I-30
tp497
sg18
g19
sg20
I95
sg21
(I91
I91
tp498
sbsI96
(iniveau
NiveauAction
p499
(dp500
g10
g40
sg12
I01
sg13
I208
sg14
(I800
I73
tp501
sg16
(I-32
I-1
I-100
tp502
sg18
g19
sg20
I96
sg21
(I68
I68
tp503
sbsI97
(iniveau
NiveauAction
p504
(dp505
g10
g11
sg12
I00
sg13
I210
sg14
(I800
I245
tp506
sg16
(I-66
I-1
I128
tp507
sg18
g19
sg20
I97
sg21
(I37
I37
tp508
sbsI98
(iniveau
NiveauAction
p509
(dp510
g10
g11
sg12
I00
sg13
I211
sg14
(I800
I12
tp511
sg16
(I-44
I21
I-20
tp512
sg18
g19
sg20
I98
sg21
(I79
I79
tp513
sbsI99
(iniveau
NiveauAction
p514
(dp515
g10
g40
sg12
I01
sg13
I213
sg14
(I800
I222
tp516
sg16
(I-66
I-31
I23
tp517
sg18
g19
sg20
I99
sg21
(I78
I78
tp518
sbsI100
(iniveau
NiveauAction
p519
(dp520
g10
g11
sg12
I00
sg13
I216
sg14
(I800
I392
tp521
sg16
(I-65
I38
I110
tp522
sg18
g19
sg20
I100
sg21
(I14
I14
tp523
sbsI101
(iniveau
NiveauAction
p524
(dp525
g10
g40
sg12
I01
sg13
I219
sg14
(I800
I234
tp526
sg16
(I-57
I2
I-36
tp527
sg18
g19
sg20
I101
sg21
(I70
I70
tp528
sbsI102
(iniveau
NiveauAction
p529
(dp530
g10
g40
sg12
I01
sg13
I220
sg14
(I800
I146
tp531
sg16
(I-53
I22
I-27
tp532
sg18
g19
sg20
I102
sg21
(I40
I40
tp533
sbsI103
(iniveau
NiveauAction
p534
(dp535
g10
g40
sg12
I01
sg13
I224
sg14
(I800
I140
tp536
sg16
(I-82
I-37
I-159
tp537
sg18
g19
sg20
I103
sg21
(I71
I71
tp538
sbsI104
(iniveau
NiveauAction
p539
(dp540
g10
g40
sg12
I01
sg13
I228
sg14
(I800
I387
tp541
sg16
(I-66
I19
I47
tp542
sg18
g19
sg20
I104
sg21
(I49
I49
tp543
sbsI105
(iniveau
NiveauAction
p544
(dp545
g10
g40
sg12
I01
sg13
I228
sg14
(I800
I219
tp546
sg16
(I-72
I-50
I-72
tp547
sg18
g19
sg20
I105
sg21
(I62
I62
tp548
sbsI106
(iniveau
NiveauAction
p549
(dp550
g10
g11
sg12
I00
sg13
I230
sg14
(I800
I259
tp551
sg16
(I-65
I31
I-31
tp552
sg18
g19
sg20
I106
sg21
(I55
I55
tp553
sbsI107
(iniveau
NiveauAction
p554
(dp555
g10
g40
sg12
I01
sg13
I234
sg14
(I800
I217
tp556
sg16
(I-37
I39
I16
tp557
sg18
g19
sg20
I107
sg21
(I52
I52
tp558
sbsI108
(iniveau
NiveauAction
p559
(dp560
g10
g11
sg12
I00
sg13
I237
sg14
(I800
I198
tp561
sg16
(I-75
I-30
I-101
tp562
sg18
g19
sg20
I108
sg21
(I80
I80
tp563
sbsI109
(iniveau
NiveauAction
p564
(dp565
g10
g11
sg12
I00
sg13
I241
sg14
(I800
I430
tp566
sg16
(I-48
I44
I-166
tp567
sg18
g19
sg20
I109
sg21
(I71
I71
tp568
sbsI110
(iniveau
NiveauAction
p569
(dp570
g10
g40
sg12
I01
sg13
I245
sg14
(I800
I278
tp571
sg16
(I-93
I33
I-119
tp572
sg18
g19
sg20
I110
sg21
(I27
I27
tp573
sbsI111
(iniveau
NiveauAction
p574
(dp575
g10
g40
sg12
I01
sg13
I248
sg14
(I800
I175
tp576
sg16
(I-60
I-34
I-168
tp577
sg18
g19
sg20
I111
sg21
(I45
I45
tp578
sbsI112
(iniveau
NiveauAction
p579
(dp580
g10
g11
sg12
I00
sg13
I248
sg14
(I800
I260
tp581
sg16
(I-37
I15
I-167
tp582
sg18
g19
sg20
I112
sg21
(I83
I83
tp583
sbsI113
(iniveau
NiveauAction
p584
(dp585
g10
g11
sg12
I00
sg13
I251
sg14
(I800
I285
tp586
sg16
(I-71
I30
I-5
tp587
sg18
g19
sg20
I113
sg21
(I94
I94
tp588
sbsI114
(iniveau
NiveauAction
p589
(dp590
g10
g40
sg12
I01
sg13
I255
sg14
(I800
I414
tp591
sg16
(I-33
I-48
I-143
tp592
sg18
g19
sg20
I114
sg21
(I16
I16
tp593
sbsI115
(iniveau
NiveauAction
p594
(dp595
g10
g11
sg12
I00
sg13
I259
sg14
(I800
I90
tp596
sg16
(I-39
I50
I51
tp597
sg18
g19
sg20
I115
sg21
(I17
I17
tp598
sbsI116
(iniveau
NiveauAction
p599
(dp600
g10
g11
sg12
I00
sg13
I263
sg14
(I800
I166
tp601
sg16
(I-75
I15
I29
tp602
sg18
g19
sg20
I116
sg21
(I87
I87
tp603
sbsI117
(iniveau
NiveauAction
p604
(dp605
g10
g11
sg12
I00
sg13
I265
sg14
(I800
I78
tp606
sg16
(I-28
I-39
I-167
tp607
sg18
g19
sg20
I117
sg21
(I27
I27
tp608
sbsI118
(iniveau
NiveauAction
p609
(dp610
g10
g11
sg12
I00
sg13
I265
sg14
(I800
I398
tp611
sg16
(I-23
I5
I-17
tp612
sg18
g19
sg20
I118
sg21
(I70
I70
tp613
sbsI119
(iniveau
NiveauAction
p614
(dp615
g10
g11
sg12
I00
sg13
I266
sg14
(I800
I127
tp616
sg16
(I-67
I-27
I-94
tp617
sg18
g19
sg20
I119
sg21
(I22
I22
tp618
sbsI120
(iniveau
NiveauAction
p619
(dp620
g10
g40
sg12
I01
sg13
I270
sg14
(I800
I277
tp621
sg16
(I-54
I-39
I-71
tp622
sg18
g19
sg20
I120
sg21
(I89
I89
tp623
sbsI121
(iniveau
NiveauAction
p624
(dp625
g10
g11
sg12
I00
sg13
I271
sg14
(I800
I463
tp626
sg16
(I-69
I-39
I-73
tp627
sg18
g19
sg20
I121
sg21
(I65
I65
tp628
sbsI122
(iniveau
NiveauAction
p629
(dp630
g10
g40
sg12
I01
sg13
I273
sg14
(I800
I86
tp631
sg16
(I-58
I-34
I-124
tp632
sg18
g19
sg20
I122
sg21
(I11
I11
tp633
sbsI123
(iniveau
NiveauAction
p634
(dp635
g10
g40
sg12
I01
sg13
I274
sg14
(I800
I118
tp636
sg16
(I-40
I-28
I43
tp637
sg18
g19
sg20
I123
sg21
(I90
I90
tp638
sbsI124
(iniveau
NiveauAction
p639
(dp640
g10
g40
sg12
I01
sg13
I278
sg14
(I800
I177
tp641
sg16
(I-76
I-37
I-58
tp642
sg18
g19
sg20
I124
sg21
(I86
I86
tp643
sbsI125
(iniveau
NiveauAction
p644
(dp645
g10
g11
sg12
I00
sg13
I282
sg14
(I800
I406
tp646
sg16
(I-92
I-25
I-22
tp647
sg18
g19
sg20
I125
sg21
(I33
I33
tp648
sbsI126
(iniveau
NiveauAction
p649
(dp650
g10
g40
sg12
I01
sg13
I285
sg14
(I800
I322
tp651
sg16
(I-74
I49
I-1
tp652
sg18
g19
sg20
I126
sg21
(I18
I18
tp653
sbsI127
(iniveau
NiveauAction
p654
(dp655
g10
g11
sg12
I00
sg13
I288
sg14
(I800
I358
tp656
sg16
(I-75
I34
I-26
tp657
sg18
g19
sg20
I127
sg21
(I38
I38
tp658
sbsI128
(iniveau
NiveauAction
p659
(dp660
g10
g11
sg12
I00
sg13
I289
sg14
(I800
I239
tp661
sg16
(I-94
I8
I128
tp662
sg18
g19
sg20
I128
sg21
(I60
I60
tp663
sbsI129
(iniveau
NiveauAction
p664
(dp665
g10
g40
sg12
I01
sg13
I290
sg14
(I800
I251
tp666
sg16
(I-26
I18
I-153
tp667
sg18
g19
sg20
I129
sg21
(I34
I34
tp668
sbsI130
(iniveau
NiveauAction
p669
(dp670
g10
g11
sg12
I00
sg13
I293
sg14
(I800
I38
tp671
sg16
(I-53
I-12
I21
tp672
sg18
g19
sg20
I130
sg21
(I59
I59
tp673
sbsI131
(iniveau
NiveauAction
p674
(dp675
g10
g40
sg12
I01
sg13
I294
sg14
(I800
I238
tp676
sg16
(I-63
I10
I171
tp677
sg18
g19
sg20
I131
sg21
(I24
I24
tp678
sbsI132
(iniveau
NiveauAction
p679
(dp680
g10
g40
sg12
I01
sg13
I295
sg14
(I800
I143
tp681
sg16
(I-66
I-14
I-33
tp682
sg18
g19
sg20
I132
sg21
(I27
I27
tp683
sbsI133
(iniveau
NiveauAction
p684
(dp685
g10
g40
sg12
I01
sg13
I298
sg14
(I800
I239
tp686
sg16
(I-88
I48
I134
tp687
sg18
g19
sg20
I133
sg21
(I77
I77
tp688
sbsI134
(iniveau
NiveauAction
p689
(dp690
g10
g40
sg12
I01
sg13
I302
sg14
(I800
I319
tp691
sg16
(I-47
I-20
I-124
tp692
sg18
g19
sg20
I134
sg21
(I62
I62
tp693
sbsI135
(iniveau
NiveauAction
p694
(dp695
g10
g11
sg12
I00
sg13
I303
sg14
(I800
I396
tp696
sg16
(I-33
I15
I172
tp697
sg18
g19
sg20
I135
sg21
(I19
I19
tp698
sbsI136
(iniveau
NiveauAction
p699
(dp700
g10
g11
sg12
I00
sg13
I307
sg14
(I800
I417
tp701
sg16
(I-80
I31
I129
tp702
sg18
g19
sg20
I136
sg21
(I43
I43
tp703
sbsI137
(iniveau
NiveauAction
p704
(dp705
g10
g40
sg12
I01
sg13
I311
sg14
(I800
I302
tp706
sg16
(I-25
I-47
I-71
tp707
sg18
g19
sg20
I137
sg21
(I87
I87
tp708
sbsI138
(iniveau
NiveauAction
p709
(dp710
g10
g11
sg12
I00
sg13
I316
sg14
(I800
I450
tp711
sg16
(I-96
I13
I-76
tp712
sg18
g19
sg20
I138
sg21
(I55
I55
tp713
sbsI139
(iniveau
NiveauAction
p714
(dp715
g10
g11
sg12
I00
sg13
I318
sg14
(I800
I260
tp716
sg16
(I-21
I32
I-70
tp717
sg18
g19
sg20
I139
sg21
(I89
I89
tp718
sbsI140
(iniveau
NiveauAction
p719
(dp720
g10
g40
sg12
I01
sg13
I320
sg14
(I800
I29
tp721
sg16
(I-32
I-34
I10
tp722
sg18
g19
sg20
I140
sg21
(I22
I22
tp723
sbsI141
(iniveau
NiveauAction
p724
(dp725
g10
g11
sg12
I00
sg13
I324
sg14
(I800
I191
tp726
sg16
(I-23
I36
I15
tp727
sg18
g19
sg20
I141
sg21
(I30
I30
tp728
sbsI142
(iniveau
NiveauAction
p729
(dp730
g10
g40
sg12
I01
sg13
I326
sg14
(I800
I101
tp731
sg16
(I-56
I17
I114
tp732
sg18
g19
sg20
I142
sg21
(I64
I64
tp733
sbsI143
(iniveau
NiveauAction
p734
(dp735
g10
g40
sg12
I01
sg13
I329
sg14
(I800
I240
tp736
sg16
(I-33
I40
I-149
tp737
sg18
g19
sg20
I143
sg21
(I93
I93
tp738
sbsI144
(iniveau
NiveauAction
p739
(dp740
g10
g11
sg12
I00
sg13
I332
sg14
(I800
I236
tp741
sg16
(I-88
I23
I-135
tp742
sg18
g19
sg20
I144
sg21
(I82
I82
tp743
sbsI145
(iniveau
NiveauAction
p744
(dp745
g10
g11
sg12
I00
sg13
I336
sg14
(I800
I45
tp746
sg16
(I-37
I-17
I-55
tp747
sg18
g19
sg20
I145
sg21
(I42
I42
tp748
sbsI146
(iniveau
NiveauAction
p749
(dp750
g10
g40
sg12
I01
sg13
I338
sg14
(I800
I332
tp751
sg16
(I-94
I-19
I-139
tp752
sg18
g19
sg20
I146
sg21
(I29
I29
tp753
sbsI147
(iniveau
NiveauAction
p754
(dp755
g10
g11
sg12
I00
sg13
I341
sg14
(I800
I401
tp756
sg16
(I-84
I-22
I177
tp757
sg18
g19
sg20
I147
sg21
(I67
I67
tp758
sbsI148
(iniveau
NiveauAction
p759
(dp760
g10
g40
sg12
I01
sg13
I343
sg14
(I800
I359
tp761
sg16
(I-28
I21
I115
tp762
sg18
g19
sg20
I148
sg21
(I69
I69
tp763
sbsI149
(iniveau
NiveauAction
p764
(dp765
g10
g11
sg12
I00
sg13
I344
sg14
(I800
I480
tp766
sg16
(I-54
I-13
I-150
tp767
sg18
g19
sg20
I149
sg21
(I95
I95
tp768
sbsI150
(iniveau
NiveauAction
p769
(dp770
g10
g40
sg12
I01
sg13
I346
sg14
(I800
I261
tp771
sg16
(I-21
I-26
I99
tp772
sg18
g19
sg20
I150
sg21
(I84
I84
tp773
sbsI151
(iniveau
NiveauAction
p774
(dp775
g10
g11
sg12
I00
sg13
I349
sg14
(I800
I495
tp776
sg16
(I-97
I22
I170
tp777
sg18
g19
sg20
I151
sg21
(I64
I64
tp778
sbsI152
(iniveau
NiveauAction
p779
(dp780
g10
g40
sg12
I01
sg13
I351
sg14
(I800
I338
tp781
sg16
(I-88
I-47
I-69
tp782
sg18
g19
sg20
I152
sg21
(I35
I35
tp783
sbsI153
(iniveau
NiveauAction
p784
(dp785
g10
g11
sg12
I00
sg13
I352
sg14
(I800
I48
tp786
sg16
(I-63
I49
I46
tp787
sg18
g19
sg20
I153
sg21
(I94
I94
tp788
sbsI154
(iniveau
NiveauAction
p789
(dp790
g10
g40
sg12
I01
sg13
I354
sg14
(I800
I470
tp791
sg16
(I-91
I0
I46
tp792
sg18
g19
sg20
I154
sg21
(I70
I70
tp793
sbsI155
(iniveau
NiveauAction
p794
(dp795
g10
g40
sg12
I01
sg13
I356
sg14
(I800
I150
tp796
sg16
(I-67
I-36
I73
tp797
sg18
g19
sg20
I155
sg21
(I44
I44
tp798
sbsI156
(iniveau
NiveauAction
p799
(dp800
g10
g40
sg12
I01
sg13
I359
sg14
(I800
I259
tp801
sg16
(I-80
I36
I-13
tp802
sg18
g19
sg20
I156
sg21
(I34
I34
tp803
sbsI157
(iniveau
NiveauAction
p804
(dp805
g10
g40
sg12
I01
sg13
I363
sg14
(I800
I42
tp806
sg16
(I-28
I43
I94
tp807
sg18
g19
sg20
I157
sg21
(I38
I38
tp808
sbsI158
(iniveau
NiveauAction
p809
(dp810
g10
g40
sg12
I01
sg13
I367
sg14
(I800
I113
tp811
sg16
(I-62
I-6
I-64
tp812
sg18
g19
sg20
I158
sg21
(I77
I77
tp813
sbsI159
(iniveau
NiveauAction
p814
(dp815
g10
g11
sg12
I00
sg13
I368
sg14
(I800
I174
tp816
sg16
(I-21
I27
I132
tp817
sg18
g19
sg20
I159
sg21
(I99
I99
tp818
sbsI160
(iniveau
NiveauAction
p819
(dp820
g10
g40
sg12
I01
sg13
I371
sg14
(I800
I78
tp821
sg16
(I-66
I-15
I-162
tp822
sg18
g19
sg20
I160
sg21
(I86
I86
tp823
sbsI161
(iniveau
NiveauAction
p824
(dp825
g10
g11
sg12
I00
sg13
I371
sg14
(I800
I497
tp826
sg16
(I-94
I-8
I138
tp827
sg18
g19
sg20
I161
sg21
(I40
I40
tp828
sbsI162
(iniveau
NiveauAction
p829
(dp830
g10
g40
sg12
I01
sg13
I373
sg14
(I800
I483
tp831
sg16
(I-37
I39
I33
tp832
sg18
g19
sg20
I162
sg21
(I36
I36
tp833
sbsI163
(iniveau
NiveauAction
p834
(dp835
g10
g40
sg12
I01
sg13
I376
sg14
(I800
I146
tp836
sg16
(I-56
I-29
I-72
tp837
sg18
g19
sg20
I163
sg21
(I61
I61
tp838
sbsI164
(iniveau
NiveauAction
p839
(dp840
g10
g40
sg12
I01
sg13
I379
sg14
(I800
I362
tp841
sg16
(I-21
I47
I-22
tp842
sg18
g19
sg20
I164
sg21
(I71
I71
tp843
sbsI165
(iniveau
NiveauAction
p844
(dp845
g10
g11
sg12
I00
sg13
I382
sg14
(I800
I466
tp846
sg16
(I-88
I1
I29
tp847
sg18
g19
sg20
I165
sg21
(I77
I77
tp848
sbsI166
(iniveau
NiveauAction
p849
(dp850
g10
g40
sg12
I01
sg13
I382
sg14
(I800
I285
tp851
sg16
(I-39
I20
I-35
tp852
sg18
g19
sg20
I166
sg21
(I28
I28
tp853
sbsI167
(iniveau
NiveauAction
p854
(dp855
g10
g11
sg12
I00
sg13
I383
sg14
(I800
I370
tp856
sg16
(I-65
I43
I-138
tp857
sg18
g19
sg20
I167
sg21
(I91
I91
tp858
sbsI168
(iniveau
NiveauAction
p859
(dp860
g10
g11
sg12
I00
sg13
I384
sg14
(I800
I384
tp861
sg16
(I-60
I-2
I105
tp862
sg18
g19
sg20
I168
sg21
(I69
I69
tp863
sbsI169
(iniveau
NiveauAction
p864
(dp865
g10
g11
sg12
I00
sg13
I387
sg14
(I800
I285
tp866
sg16
(I-80
I-7
I76
tp867
sg18
g19
sg20
I169
sg21
(I45
I45
tp868
sbsI170
(iniveau
NiveauAction
p869
(dp870
g10
g11
sg12
I00
sg13
I391
sg14
(I800
I15
tp871
sg16
(I-89
I5
I117
tp872
sg18
g19
sg20
I170
sg21
(I71
I71
tp873
sbsI171
(iniveau
NiveauAction
p874
(dp875
g10
g40
sg12
I01
sg13
I392
sg14
(I800
I230
tp876
sg16
(I-28
I-48
I-63
tp877
sg18
g19
sg20
I171
sg21
(I75
I75
tp878
sbsI172
(iniveau
NiveauAction
p879
(dp880
g10
g11
sg12
I00
sg13
I393
sg14
(I800
I320
tp881
sg16
(I-48
I2
I-69
tp882
sg18
g19
sg20
I172
sg21
(I85
I85
tp883
sbsI173
(iniveau
NiveauAction
p884
(dp885
g10
g11
sg12
I00
sg13
I395
sg14
(I800
I137
tp886
sg16
(I-24
I-19
I-71
tp887
sg18
g19
sg20
I173
sg21
(I46
I46
tp888
sbsI174
(iniveau
NiveauAction
p889
(dp890
g10
g40
sg12
I01
sg13
I400
sg14
(I800
I326
tp891
sg16
(I-63
I50
I62
tp892
sg18
g19
sg20
I174
sg21
(I78
I78
tp893
sbsI175
(iniveau
NiveauAction
p894
(dp895
g10
g11
sg12
I00
sg13
I404
sg14
(I800
I1
tp896
sg16
(I-80
I42
I-143
tp897
sg18
g19
sg20
I175
sg21
(I63
I63
tp898
sbsI176
(iniveau
NiveauAction
p899
(dp900
g10
g40
sg12
I01
sg13
I405
sg14
(I800
I22
tp901
sg16
(I-83
I14
I78
tp902
sg18
g19
sg20
I176
sg21
(I55
I55
tp903
sbsI177
(iniveau
NiveauAction
p904
(dp905
g10
g40
sg12
I01
sg13
I406
sg14
(I800
I245
tp906
sg16
(I-59
I-28
I9
tp907
sg18
g19
sg20
I177
sg21
(I13
I13
tp908
sbsI178
(iniveau
NiveauAction
p909
(dp910
g10
g11
sg12
I00
sg13
I408
sg14
(I800
I46
tp911
sg16
(I-40
I-31
I-68
tp912
sg18
g19
sg20
I178
sg21
(I28
I28
tp913
sbsI179
(iniveau
NiveauAction
p914
(dp915
g10
g40
sg12
I01
sg13
I411
sg14
(I800
I480
tp916
sg16
(I-100
I-21
I-1
tp917
sg18
g19
sg20
I179
sg21
(I88
I88
tp918
sbsI180
(iniveau
NiveauAction
p919
(dp920
g10
g11
sg12
I00
sg13
I414
sg14
(I800
I199
tp921
sg16
(I-59
I-34
I172
tp922
sg18
g19
sg20
I180
sg21
(I35
I35
tp923
sbsI181
(iniveau
NiveauAction
p924
(dp925
g10
g40
sg12
I01
sg13
I417
sg14
(I800
I235
tp926
sg16
(I-41
I-2
I-175
tp927
sg18
g19
sg20
I181
sg21
(I32
I32
tp928
sbsI182
(iniveau
NiveauAction
p929
(dp930
g10
g40
sg12
I01
sg13
I417
sg14
(I800
I482
tp931
sg16
(I-74
I5
I48
tp932
sg18
g19
sg20
I182
sg21
(I49
I49
tp933
sbsI183
(iniveau
NiveauAction
p934
(dp935
g10
g40
sg12
I01
sg13
I422
sg14
(I800
I396
tp936
sg16
(I-51
I7
I-141
tp937
sg18
g19
sg20
I183
sg21
(I73
I73
tp938
sbsI184
(iniveau
NiveauAction
p939
(dp940
g10
g11
sg12
I00
sg13
I425
sg14
(I800
I236
tp941
sg16
(I-73
I-31
I-134
tp942
sg18
g19
sg20
I184
sg21
(I36
I36
tp943
sbsI185
(iniveau
NiveauAction
p944
(dp945
g10
g40
sg12
I01
sg13
I427
sg14
(I800
I161
tp946
sg16
(I-66
I-49
I147
tp947
sg18
g19
sg20
I185
sg21
(I79
I79
tp948
sbsI186
(iniveau
NiveauAction
p949
(dp950
g10
g40
sg12
I01
sg13
I431
sg14
(I800
I388
tp951
sg16
(I-69
I28
I-109
tp952
sg18
g19
sg20
I186
sg21
(I23
I23
tp953
sbsI187
(iniveau
NiveauAction
p954
(dp955
g10
g40
sg12
I01
sg13
I433
sg14
(I800
I151
tp956
sg16
(I-51
I4
I48
tp957
sg18
g19
sg20
I187
sg21
(I85
I85
tp958
sbsI188
(iniveau
NiveauAction
p959
(dp960
g10
g11
sg12
I00
sg13
I436
sg14
(I800
I438
tp961
sg16
(I-76
I-33
I37
tp962
sg18
g19
sg20
I188
sg21
(I95
I95
tp963
sbsI189
(iniveau
NiveauAction
p964
(dp965
g10
g40
sg12
I01
sg13
I438
sg14
(I800
I259
tp966
sg16
(I-86
I-9
I146
tp967
sg18
g19
sg20
I189
sg21
(I79
I79
tp968
sbsI190
(iniveau
NiveauAction
p969
(dp970
g10
g11
sg12
I00
sg13
I439
sg14
(I800
I225
tp971
sg16
(I-81
I18
I-158
tp972
sg18
g19
sg20
I190
sg21
(I39
I39
tp973
sbsI191
(iniveau
NiveauAction
p974
(dp975
g10
g11
sg12
I00
sg13
I440
sg14
(I800
I481
tp976
sg16
(I-39
I-38
I-54
tp977
sg18
g19
sg20
I191
sg21
(I67
I67
tp978
sbsI192
(iniveau
NiveauAction
p979
(dp980
g10
g11
sg12
I00
sg13
I444
sg14
(I800
I240
tp981
sg16
(I-86
I22
I-146
tp982
sg18
g19
sg20
I192
sg21
(I80
I80
tp983
sbsI193
(iniveau
NiveauAction
p984
(dp985
g10
g40
sg12
I01
sg13
I445
sg14
(I800
I25
tp986
sg16
(I-93
I7
I172
tp987
sg18
g19
sg20
I193
sg21
(I49
I49
tp988
sbsI194
(iniveau
NiveauAction
p989
(dp990
g10
g11
sg12
I00
sg13
I448
sg14
(I800
I103
tp991
sg16
(I-50
I8
I-112
tp992
sg18
g19
sg20
I194
sg21
(I41
I41
tp993
sbsI195
(iniveau
NiveauAction
p994
(dp995
g10
g11
sg12
I00
sg13
I452
sg14
(I800
I232
tp996
sg16
(I-28
I1
I-107
tp997
sg18
g19
sg20
I195
sg21
(I97
I97
tp998
sbsI196
(iniveau
NiveauAction
p999
(dp1000
g10
g11
sg12
I00
sg13
I455
sg14
(I800
I454
tp1001
sg16
(I-97
I-9
I-13
tp1002
sg18
g19
sg20
I196
sg21
(I90
I90
tp1003
sbsI197
(iniveau
NiveauAction
p1004
(dp1005
g10
g40
sg12
I01
sg13
I458
sg14
(I800
I117
tp1006
sg16
(I-62
I-5
I-179
tp1007
sg18
g19
sg20
I197
sg21
(I54
I54
tp1008
sbsI198
(iniveau
NiveauAction
p1009
(dp1010
g10
g40
sg12
I01
sg13
I459
sg14
(I800
I354
tp1011
sg16
(I-87
I9
I-105
tp1012
sg18
g19
sg20
I198
sg21
(I33
I33
tp1013
sbsI199
(iniveau
NiveauAction
p1014
(dp1015
g10
g11
sg12
I00
sg13
I459
sg14
(I800
I345
tp1016
sg16
(I-24
I-43
I38
tp1017
sg18
g19
sg20
I199
sg21
(I62
I62
tp1018
sbssg20
S'2-zooz'
p1019
sb.