(iniveau
NiveauGenerated
p0
(dp1
S'image'
p2
S'images/space3.jpg'
p3
sS'name'
p4
S'niveau 3 - planete ZARDOZ'
p5
sS'actions'
p6
(dp7
I0
(iniveau
NiveauAction
p8
(dp9
S'isBack'
p10
I01
sS'object'
p11
S'Asteroid'
p12
sS'isDeco'
p13
I00
sS'time'
p14
I0
sS'position'
p15
(I800
I181
tp16
sS'movement'
p17
(I-87
I-7
I-50
tp18
sS'type'
p19
S'create'
p20
sS'id'
p21
I0
sS'size'
p22
(I72
I72
tp23
sbsI1
(iniveau
NiveauAction
p24
(dp25
g10
I01
sg11
S'SpaceShipVx32'
p26
sg13
I00
sg14
I0
sg15
(I800
I473
tp27
sg17
(I0
I0
I0
tp28
sg19
g20
sg21
I1
sg22
(I32
I32
tp29
sbsI2
(iniveau
NiveauAction
p30
(dp31
g10
I01
sg11
g26
sg13
I00
sg14
I0
sg15
(I800
I385
tp32
sg17
g28
sg19
g20
sg21
I2
sg22
g29
sbsI3
(iniveau
NiveauAction
p33
(dp34
g10
I01
sg11
S'AsteroidDeco'
p35
sg13
I01
sg14
I1
sg15
(I800
I300
tp36
sg17
(I-47
I18
I-126
tp37
sg19
g20
sg21
I3
sg22
(I41
I41
tp38
sbsI4
(iniveau
NiveauAction
p39
(dp40
g10
I01
sg11
g26
sg13
I00
sg14
I2
sg15
(I800
I288
tp41
sg17
g28
sg19
g20
sg21
I4
sg22
g29
sbsI5
(iniveau
NiveauAction
p42
(dp43
g10
I01
sg11
g12
sg13
I00
sg14
I4
sg15
(I800
I214
tp44
sg17
(I-99
I19
I-155
tp45
sg19
g20
sg21
I5
sg22
(I95
I95
tp46
sbsI6
(iniveau
NiveauAction
p47
(dp48
g10
I01
sg11
g12
sg13
I00
sg14
I6
sg15
(I800
I114
tp49
sg17
(I-86
I-7
I7
tp50
sg19
g20
sg21
I6
sg22
(I85
I85
tp51
sbsI7
(iniveau
NiveauAction
p52
(dp53
g10
I01
sg11
g26
sg13
I00
sg14
I8
sg15
(I800
I366
tp54
sg17
g28
sg19
g20
sg21
I7
sg22
g29
sbsI8
(iniveau
NiveauAction
p55
(dp56
g10
I01
sg11
g35
sg13
I01
sg14
I9
sg15
(I800
I254
tp57
sg17
(I-41
I-17
I-95
tp58
sg19
g20
sg21
I8
sg22
(I43
I43
tp59
sbsI9
(iniveau
NiveauAction
p60
(dp61
g10
I01
sg11
g35
sg13
I01
sg14
I10
sg15
(I800
I352
tp62
sg17
(I-37
I-19
I-10
tp63
sg19
g20
sg21
I9
sg22
(I42
I42
tp64
sbsI10
(iniveau
NiveauAction
p65
(dp66
g10
I01
sg11
g35
sg13
I01
sg14
I10
sg15
(I800
I245
tp67
sg17
(I-30
I-20
I-68
tp68
sg19
g20
sg21
I10
sg22
(I55
I55
tp69
sbsI11
(iniveau
NiveauAction
p70
(dp71
g10
I01
sg11
g26
sg13
I00
sg14
I12
sg15
(I800
I376
tp72
sg17
g28
sg19
g20
sg21
I11
sg22
g29
sbsI12
(iniveau
NiveauAction
p73
(dp74
g10
I01
sg11
g35
sg13
I01
sg14
I13
sg15
(I800
I34
tp75
sg17
(I-41
I15
I-167
tp76
sg19
g20
sg21
I12
sg22
(I67
I67
tp77
sbsI13
(iniveau
NiveauAction
p78
(dp79
g10
I01
sg11
g26
sg13
I00
sg14
I14
sg15
(I800
I177
tp80
sg17
g28
sg19
g20
sg21
I13
sg22
g29
sbsI14
(iniveau
NiveauAction
p81
(dp82
g10
I01
sg11
g12
sg13
I00
sg14
I14
sg15
(I800
I105
tp83
sg17
(I-41
I-24
I-6
tp84
sg19
g20
sg21
I14
sg22
(I50
I50
tp85
sbsI15
(iniveau
NiveauAction
p86
(dp87
g10
I01
sg11
g35
sg13
I01
sg14
I16
sg15
(I800
I58
tp88
sg17
(I-50
I-16
I27
tp89
sg19
g20
sg21
I15
sg22
(I47
I47
tp90
sbsI16
(iniveau
NiveauAction
p91
(dp92
g10
I01
sg11
g35
sg13
I01
sg14
I18
sg15
(I800
I405
tp93
sg17
(I-42
I8
I110
tp94
sg19
g20
sg21
I16
sg22
(I68
I68
tp95
sbsI17
(iniveau
NiveauAction
p96
(dp97
g10
I01
sg11
g12
sg13
I00
sg14
I20
sg15
(I800
I107
tp98
sg17
(I-47
I-7
I-173
tp99
sg19
g20
sg21
I17
sg22
(I75
I75
tp100
sbsI18
(iniveau
NiveauAction
p101
(dp102
g10
I01
sg11
g35
sg13
I01
sg14
I21
sg15
(I800
I9
tp103
sg17
(I-13
I-7
I-72
tp104
sg19
g20
sg21
I18
sg22
(I38
I38
tp105
sbsI19
(iniveau
NiveauAction
p106
(dp107
g10
I01
sg11
g35
sg13
I01
sg14
I23
sg15
(I800
I136
tp108
sg17
(I-29
I17
I-79
tp109
sg19
g20
sg21
I19
sg22
(I34
I34
tp110
sbsI20
(iniveau
NiveauAction
p111
(dp112
g10
I01
sg11
g35
sg13
I01
sg14
I25
sg15
(I800
I354
tp113
sg17
(I-35
I16
I83
tp114
sg19
g20
sg21
I20
sg22
(I57
I57
tp115
sbsI21
(iniveau
NiveauAction
p116
(dp117
g10
I01
sg11
g35
sg13
I01
sg14
I27
sg15
(I800
I350
tp118
sg17
(I-11
I16
I126
tp119
sg19
g20
sg21
I21
sg22
(I59
I59
tp120
sbsI22
(iniveau
NiveauAction
p121
(dp122
g10
I01
sg11
g12
sg13
I00
sg14
I28
sg15
(I800
I471
tp123
sg17
(I-91
I-15
I-103
tp124
sg19
g20
sg21
I22
sg22
(I81
I81
tp125
sbsI23
(iniveau
NiveauAction
p126
(dp127
g10
I01
sg11
g35
sg13
I01
sg14
I30
sg15
(I800
I284
tp128
sg17
(I-13
I-13
I150
tp129
sg19
g20
sg21
I23
sg22
(I65
I65
tp130
sbsI24
(iniveau
NiveauAction
p131
(dp132
g10
I01
sg11
g35
sg13
I01
sg14
I31
sg15
(I800
I86
tp133
sg17
(I-39
I7
I-6
tp134
sg19
g20
sg21
I24
sg22
(I43
I43
tp135
sbsI25
(iniveau
NiveauAction
p136
(dp137
g10
I01
sg11
g35
sg13
I01
sg14
I31
sg15
(I800
I77
tp138
sg17
(I-19
I18
I26
tp139
sg19
g20
sg21
I25
sg22
(I34
I34
tp140
sbsI26
(iniveau
NiveauAction
p141
(dp142
g10
I01
sg11
g26
sg13
I00
sg14
I31
sg15
(I800
I455
tp143
sg17
g28
sg19
g20
sg21
I26
sg22
g29
sbsI27
(iniveau
NiveauAction
p144
(dp145
g10
I01
sg11
g26
sg13
I00
sg14
I31
sg15
(I800
I190
tp146
sg17
g28
sg19
g20
sg21
I27
sg22
g29
sbsI28
(iniveau
NiveauAction
p147
(dp148
g10
I01
sg11
g35
sg13
I01
sg14
I32
sg15
(I800
I196
tp149
sg17
(I-48
I8
I-121
tp150
sg19
g20
sg21
I28
sg22
(I40
I40
tp151
sbsI29
(iniveau
NiveauAction
p152
(dp153
g10
I01
sg11
g12
sg13
I00
sg14
I32
sg15
(I800
I60
tp154
sg17
(I-55
I17
I-125
tp155
sg19
g20
sg21
I29
sg22
(I50
I50
tp156
sbsI30
(iniveau
NiveauAction
p157
(dp158
g10
I01
sg11
g35
sg13
I01
sg14
I33
sg15
(I800
I281
tp159
sg17
(I-15
I-2
I142
tp160
sg19
g20
sg21
I30
sg22
(I67
I67
tp161
sbsI31
(iniveau
NiveauAction
p162
(dp163
g10
I01
sg11
g12
sg13
I00
sg14
I33
sg15
(I800
I157
tp164
sg17
(I-94
I-23
I0
tp165
sg19
g20
sg21
I31
sg22
(I71
I71
tp166
sbsI32
(iniveau
NiveauAction
p167
(dp168
g10
I01
sg11
g12
sg13
I00
sg14
I35
sg15
(I800
I418
tp169
sg17
(I-42
I-23
I163
tp170
sg19
g20
sg21
I32
sg22
(I83
I83
tp171
sbsI33
(iniveau
NiveauAction
p172
(dp173
g10
I01
sg11
g12
sg13
I00
sg14
I37
sg15
(I800
I261
tp174
sg17
(I-54
I-12
I5
tp175
sg19
g20
sg21
I33
sg22
(I86
I86
tp176
sbsI34
(iniveau
NiveauAction
p177
(dp178
g10
I01
sg11
g12
sg13
I00
sg14
I37
sg15
(I800
I360
tp179
sg17
(I-59
I-25
I77
tp180
sg19
g20
sg21
I34
sg22
(I55
I55
tp181
sbsI35
(iniveau
NiveauAction
p182
(dp183
g10
I01
sg11
g26
sg13
I00
sg14
I39
sg15
(I800
I346
tp184
sg17
g28
sg19
g20
sg21
I35
sg22
g29
sbsI36
(iniveau
NiveauAction
p185
(dp186
g10
I01
sg11
g26
sg13
I00
sg14
I41
sg15
(I800
I177
tp187
sg17
g28
sg19
g20
sg21
I36
sg22
g29
sbsI37
(iniveau
NiveauAction
p188
(dp189
g10
I01
sg11
g26
sg13
I00
sg14
I43
sg15
(I800
I14
tp190
sg17
g28
sg19
g20
sg21
I37
sg22
g29
sbsI38
(iniveau
NiveauAction
p191
(dp192
g10
I01
sg11
g26
sg13
I00
sg14
I45
sg15
(I800
I472
tp193
sg17
g28
sg19
g20
sg21
I38
sg22
g29
sbsI39
(iniveau
NiveauAction
p194
(dp195
g10
I01
sg11
g35
sg13
I01
sg14
I45
sg15
(I800
I287
tp196
sg17
(I-23
I19
I-152
tp197
sg19
g20
sg21
I39
sg22
(I39
I39
tp198
sbsI40
(iniveau
NiveauAction
p199
(dp200
g10
I01
sg11
g26
sg13
I00
sg14
I46
sg15
(I800
I498
tp201
sg17
g28
sg19
g20
sg21
I40
sg22
g29
sbsI41
(iniveau
NiveauAction
p202
(dp203
g10
I01
sg11
g35
sg13
I01
sg14
I48
sg15
(I800
I76
tp204
sg17
(I-46
I-2
I-124
tp205
sg19
g20
sg21
I41
sg22
(I41
I41
tp206
sbsI42
(iniveau
NiveauAction
p207
(dp208
g10
I01
sg11
g12
sg13
I00
sg14
I49
sg15
(I800
I329
tp209
sg17
(I-58
I-18
I146
tp210
sg19
g20
sg21
I42
sg22
(I86
I86
tp211
sbsI43
(iniveau
NiveauAction
p212
(dp213
g10
I01
sg11
g35
sg13
I01
sg14
I51
sg15
(I800
I154
tp214
sg17
(I-50
I-3
I159
tp215
sg19
g20
sg21
I43
sg22
(I41
I41
tp216
sbsI44
(iniveau
NiveauAction
p217
(dp218
g10
I01
sg11
g35
sg13
I01
sg14
I52
sg15
(I800
I366
tp219
sg17
(I-40
I13
I151
tp220
sg19
g20
sg21
I44
sg22
(I33
I33
tp221
sbsI45
(iniveau
NiveauAction
p222
(dp223
g10
I01
sg11
g35
sg13
I01
sg14
I52
sg15
(I800
I353
tp224
sg17
(I-24
I-6
I71
tp225
sg19
g20
sg21
I45
sg22
(I59
I59
tp226
sbsI46
(iniveau
NiveauAction
p227
(dp228
g10
I01
sg11
g35
sg13
I01
sg14
I52
sg15
(I800
I120
tp229
sg17
(I-17
I-15
I-136
tp230
sg19
g20
sg21
I46
sg22
(I60
I60
tp231
sbsI47
(iniveau
NiveauAction
p232
(dp233
g10
I01
sg11
g26
sg13
I00
sg14
I54
sg15
(I800
I218
tp234
sg17
g28
sg19
g20
sg21
I47
sg22
g29
sbsI48
(iniveau
NiveauAction
p235
(dp236
g10
I01
sg11
g26
sg13
I00
sg14
I54
sg15
(I800
I150
tp237
sg17
g28
sg19
g20
sg21
I48
sg22
g29
sbsI49
(iniveau
NiveauAction
p238
(dp239
g10
I01
sg11
g12
sg13
I00
sg14
I54
sg15
(I800
I134
tp240
sg17
(I-84
I17
I114
tp241
sg19
g20
sg21
I49
sg22
(I65
I65
tp242
sbsI50
(iniveau
NiveauAction
p243
(dp244
g10
I01
sg11
g35
sg13
I01
sg14
I55
sg15
(I800
I224
tp245
sg17
(I-20
I-16
I-78
tp246
sg19
g20
sg21
I50
sg22
(I49
I49
tp247
sbsI51
(iniveau
NiveauAction
p248
(dp249
g10
I01
sg11
g12
sg13
I00
sg14
I56
sg15
(I800
I79
tp250
sg17
(I-57
I-6
I58
tp251
sg19
g20
sg21
I51
sg22
(I86
I86
tp252
sbsI52
(iniveau
NiveauAction
p253
(dp254
g10
I01
sg11
g12
sg13
I00
sg14
I59
sg15
(I800
I49
tp255
sg17
(I-39
I23
I-108
tp256
sg19
g20
sg21
I52
sg22
(I79
I79
tp257
sbsI53
(iniveau
NiveauAction
p258
(dp259
g10
I01
sg11
g12
sg13
I00
sg14
I61
sg15
(I800
I311
tp260
sg17
(I-57
I9
I-34
tp261
sg19
g20
sg21
I53
sg22
(I88
I88
tp262
sbsI54
(iniveau
NiveauAction
p263
(dp264
g10
I01
sg11
g35
sg13
I01
sg14
I62
sg15
(I800
I122
tp265
sg17
(I-19
I16
I30
tp266
sg19
g20
sg21
I54
sg22
(I67
I67
tp267
sbsI55
(iniveau
NiveauAction
p268
(dp269
g10
I01
sg11
g35
sg13
I01
sg14
I64
sg15
(I800
I424
tp270
sg17
(I-16
I-20
I-130
tp271
sg19
g20
sg21
I55
sg22
(I41
I41
tp272
sbsI56
(iniveau
NiveauAction
p273
(dp274
g10
I01
sg11
g12
sg13
I00
sg14
I64
sg15
(I800
I191
tp275
sg17
(I-35
I-11
I22
tp276
sg19
g20
sg21
I56
sg22
(I100
I100
tp277
sbsI57
(iniveau
NiveauAction
p278
(dp279
g10
I01
sg11
g26
sg13
I00
sg14
I66
sg15
(I800
I440
tp280
sg17
g28
sg19
g20
sg21
I57
sg22
g29
sbsI58
(iniveau
NiveauAction
p281
(dp282
g10
I01
sg11
g12
sg13
I00
sg14
I67
sg15
(I800
I240
tp283
sg17
(I-88
I25
I163
tp284
sg19
g20
sg21
I58
sg22
(I83
I83
tp285
sbsI59
(iniveau
NiveauAction
p286
(dp287
g10
I01
sg11
g35
sg13
I01
sg14
I68
sg15
(I800
I333
tp288
sg17
(I-44
I-18
I-152
tp289
sg19
g20
sg21
I59
sg22
(I48
I48
tp290
sbsI60
(iniveau
NiveauAction
p291
(dp292
g10
I01
sg11
g12
sg13
I00
sg14
I71
sg15
(I800
I186
tp293
sg17
(I-47
I29
I167
tp294
sg19
g20
sg21
I60
sg22
(I88
I88
tp295
sbsI61
(iniveau
NiveauAction
p296
(dp297
g10
I01
sg11
g12
sg13
I00
sg14
I72
sg15
(I800
I377
tp298
sg17
(I-95
I-21
I130
tp299
sg19
g20
sg21
I61
sg22
(I69
I69
tp300
sbsI62
(iniveau
NiveauAction
p301
(dp302
g10
I01
sg11
g26
sg13
I00
sg14
I72
sg15
(I800
I128
tp303
sg17
g28
sg19
g20
sg21
I62
sg22
g29
sbsI63
(iniveau
NiveauAction
p304
(dp305
g10
I01
sg11
g12
sg13
I00
sg14
I73
sg15
(I800
I288
tp306
sg17
(I-86
I-10
I18
tp307
sg19
g20
sg21
I63
sg22
(I98
I98
tp308
sbsI64
(iniveau
NiveauAction
p309
(dp310
g10
I01
sg11
g35
sg13
I01
sg14
I73
sg15
(I800
I301
tp311
sg17
(I-19
I8
I63
tp312
sg19
g20
sg21
I64
sg22
(I67
I67
tp313
sbsI65
(iniveau
NiveauAction
p314
(dp315
g10
I01
sg11
g35
sg13
I01
sg14
I75
sg15
(I800
I72
tp316
sg17
(I-17
I5
I49
tp317
sg19
g20
sg21
I65
sg22
(I60
I60
tp318
sbsI66
(iniveau
NiveauAction
p319
(dp320
g10
I01
sg11
g26
sg13
I00
sg14
I77
sg15
(I800
I235
tp321
sg17
g28
sg19
g20
sg21
I66
sg22
g29
sbsI67
(iniveau
NiveauAction
p322
(dp323
g10
I01
sg11
g35
sg13
I01
sg14
I77
sg15
(I800
I142
tp324
sg17
(I-34
I-3
I-104
tp325
sg19
g20
sg21
I67
sg22
(I69
I69
tp326
sbsI68
(iniveau
NiveauAction
p327
(dp328
g10
I01
sg11
g35
sg13
I01
sg14
I80
sg15
(I800
I166
tp329
sg17
(I-11
I17
I77
tp330
sg19
g20
sg21
I68
sg22
(I64
I64
tp331
sbsI69
(iniveau
NiveauAction
p332
(dp333
g10
I01
sg11
g12
sg13
I00
sg14
I81
sg15
(I800
I22
tp334
sg17
(I-63
I-29
I176
tp335
sg19
g20
sg21
I69
sg22
(I86
I86
tp336
sbsI70
(iniveau
NiveauAction
p337
(dp338
g10
I01
sg11
g35
sg13
I01
sg14
I82
sg15
(I800
I103
tp339
sg17
(I-16
I-2
I173
tp340
sg19
g20
sg21
I70
sg22
(I60
I60
tp341
sbsI71
(iniveau
NiveauAction
p342
(dp343
g10
I01
sg11
g26
sg13
I00
sg14
I84
sg15
(I800
I249
tp344
sg17
g28
sg19
g20
sg21
I71
sg22
g29
sbsI72
(iniveau
NiveauAction
p345
(dp346
g10
I01
sg11
g35
sg13
I01
sg14
I84
sg15
(I800
I338
tp347
sg17
(I-33
I7
I-69
tp348
sg19
g20
sg21
I72
sg22
(I70
I70
tp349
sbsI73
(iniveau
NiveauAction
p350
(dp351
g10
I01
sg11
g26
sg13
I00
sg14
I84
sg15
(I800
I368
tp352
sg17
g28
sg19
g20
sg21
I73
sg22
g29
sbsI74
(iniveau
NiveauAction
p353
(dp354
g10
I01
sg11
g35
sg13
I01
sg14
I85
sg15
(I800
I473
tp355
sg17
(I-22
I13
I174
tp356
sg19
g20
sg21
I74
sg22
(I44
I44
tp357
sbsI75
(iniveau
NiveauAction
p358
(dp359
g10
I01
sg11
g12
sg13
I00
sg14
I85
sg15
(I800
I109
tp360
sg17
(I-59
I-23
I-29
tp361
sg19
g20
sg21
I75
sg22
(I77
I77
tp362
sbsI76
(iniveau
NiveauAction
p363
(dp364
g10
I01
sg11
g35
sg13
I01
sg14
I86
sg15
(I800
I499
tp365
sg17
(I-27
I19
I118
tp366
sg19
g20
sg21
I76
sg22
(I45
I45
tp367
sbsI77
(iniveau
NiveauAction
p368
(dp369
g10
I01
sg11
g35
sg13
I01
sg14
I87
sg15
(I800
I405
tp370
sg17
(I-42
I-4
I67
tp371
sg19
g20
sg21
I77
sg22
(I52
I52
tp372
sbsI78
(iniveau
NiveauAction
p373
(dp374
g10
I01
sg11
g35
sg13
I01
sg14
I89
sg15
(I800
I456
tp375
sg17
(I-16
I9
I80
tp376
sg19
g20
sg21
I78
sg22
(I56
I56
tp377
sbsI79
(iniveau
NiveauAction
p378
(dp379
g10
I01
sg11
g12
sg13
I00
sg14
I90
sg15
(I800
I132
tp380
sg17
(I-82
I9
I113
tp381
sg19
g20
sg21
I79
sg22
(I61
I61
tp382
sbsI80
(iniveau
NiveauAction
p383
(dp384
g10
I01
sg11
g12
sg13
I00
sg14
I92
sg15
(I800
I38
tp385
sg17
(I-66
I-16
I-154
tp386
sg19
g20
sg21
I80
sg22
(I50
I50
tp387
sbsI81
(iniveau
NiveauAction
p388
(dp389
g10
I01
sg11
g35
sg13
I01
sg14
I93
sg15
(I800
I411
tp390
sg17
(I-44
I-4
I103
tp391
sg19
g20
sg21
I81
sg22
(I64
I64
tp392
sbsI82
(iniveau
NiveauAction
p393
(dp394
g10
I01
sg11
g35
sg13
I01
sg14
I95
sg15
(I800
I147
tp395
sg17
(I-23
I6
I-71
tp396
sg19
g20
sg21
I82
sg22
(I31
I31
tp397
sbsI83
(iniveau
NiveauAction
p398
(dp399
g10
I01
sg11
g12
sg13
I00
sg14
I95
sg15
(I800
I409
tp400
sg17
(I-92
I11
I22
tp401
sg19
g20
sg21
I83
sg22
(I56
I56
tp402
sbsI84
(iniveau
NiveauAction
p403
(dp404
g10
I01
sg11
g12
sg13
I00
sg14
I97
sg15
(I800
I136
tp405
sg17
(I-89
I27
I-91
tp406
sg19
g20
sg21
I84
sg22
(I98
I98
tp407
sbsI85
(iniveau
NiveauAction
p408
(dp409
g10
I01
sg11
g35
sg13
I01
sg14
I99
sg15
(I800
I308
tp410
sg17
(I-48
I13
I88
tp411
sg19
g20
sg21
I85
sg22
(I36
I36
tp412
sbsI86
(iniveau
NiveauAction
p413
(dp414
g10
I01
sg11
g26
sg13
I00
sg14
I101
sg15
(I800
I227
tp415
sg17
g28
sg19
g20
sg21
I86
sg22
g29
sbsI87
(iniveau
NiveauAction
p416
(dp417
g10
I01
sg11
g12
sg13
I00
sg14
I102
sg15
(I800
I27
tp418
sg17
(I-54
I-17
I-105
tp419
sg19
g20
sg21
I87
sg22
(I75
I75
tp420
sbsI88
(iniveau
NiveauAction
p421
(dp422
g10
I01
sg11
g35
sg13
I01
sg14
I102
sg15
(I800
I273
tp423
sg17
(I-31
I9
I112
tp424
sg19
g20
sg21
I88
sg22
(I41
I41
tp425
sbsI89
(iniveau
NiveauAction
p426
(dp427
g10
I01
sg11
g35
sg13
I01
sg14
I103
sg15
(I800
I10
tp428
sg17
(I-23
I10
I138
tp429
sg19
g20
sg21
I89
sg22
(I53
I53
tp430
sbsI90
(iniveau
NiveauAction
p431
(dp432
g10
I01
sg11
g35
sg13
I01
sg14
I104
sg15
(I800
I33
tp433
sg17
(I-50
I-17
I29
tp434
sg19
g20
sg21
I90
sg22
(I40
I40
tp435
sbsI91
(iniveau
NiveauAction
p436
(dp437
g10
I01
sg11
g35
sg13
I01
sg14
I105
sg15
(I800
I353
tp438
sg17
(I-23
I-9
I17
tp439
sg19
g20
sg21
I91
sg22
(I40
I40
tp440
sbsI92
(iniveau
NiveauAction
p441
(dp442
g10
I01
sg11
g35
sg13
I01
sg14
I106
sg15
(I800
I233
tp443
sg17
(I-18
I-19
I-176
tp444
sg19
g20
sg21
I92
sg22
(I62
I62
tp445
sbsI93
(iniveau
NiveauAction
p446
(dp447
g10
I01
sg11
g35
sg13
I01
sg14
I106
sg15
(I800
I395
tp448
sg17
(I-40
I8
I-114
tp449
sg19
g20
sg21
I93
sg22
(I43
I43
tp450
sbsI94
(iniveau
NiveauAction
p451
(dp452
g10
I01
sg11
g12
sg13
I00
sg14
I107
sg15
(I800
I324
tp453
sg17
(I-94
I-25
I-155
tp454
sg19
g20
sg21
I94
sg22
(I73
I73
tp455
sbsI95
(iniveau
NiveauAction
p456
(dp457
g10
I01
sg11
g12
sg13
I00
sg14
I108
sg15
(I800
I278
tp458
sg17
(I-39
I-14
I-43
tp459
sg19
g20
sg21
I95
sg22
(I87
I87
tp460
sbsI96
(iniveau
NiveauAction
p461
(dp462
g10
I01
sg11
g12
sg13
I00
sg14
I109
sg15
(I800
I107
tp463
sg17
(I-87
I7
I13
tp464
sg19
g20
sg21
I96
sg22
(I94
I94
tp465
sbsI97
(iniveau
NiveauAction
p466
(dp467
g10
I01
sg11
g12
sg13
I00
sg14
I111
sg15
(I800
I180
tp468
sg17
(I-86
I23
I-173
tp469
sg19
g20
sg21
I97
sg22
(I64
I64
tp470
sbsI98
(iniveau
NiveauAction
p471
(dp472
g10
I01
sg11
g12
sg13
I00
sg14
I112
sg15
(I800
I375
tp473
sg17
(I-46
I5
I-39
tp474
sg19
g20
sg21
I98
sg22
(I58
I58
tp475
sbsI99
(iniveau
NiveauAction
p476
(dp477
g10
I01
sg11
g35
sg13
I01
sg14
I113
sg15
(I800
I188
tp478
sg17
(I-25
I6
I142
tp479
sg19
g20
sg21
I99
sg22
(I33
I33
tp480
sbsI100
(iniveau
NiveauAction
p481
(dp482
g10
I01
sg11
g35
sg13
I01
sg14
I113
sg15
(I800
I446
tp483
sg17
(I-43
I-12
I-126
tp484
sg19
g20
sg21
I100
sg22
(I54
I54
tp485
sbsI101
(iniveau
NiveauAction
p486
(dp487
g10
I01
sg11
g12
sg13
I00
sg14
I113
sg15
(I800
I9
tp488
sg17
(I-34
I-7
I25
tp489
sg19
g20
sg21
I101
sg22
(I68
I68
tp490
sbsI102
(iniveau
NiveauAction
p491
(dp492
g10
I01
sg11
g35
sg13
I01
sg14
I114
sg15
(I800
I439
tp493
sg17
(I-31
I-11
I-149
tp494
sg19
g20
sg21
I102
sg22
(I70
I70
tp495
sbsI103
(iniveau
NiveauAction
p496
(dp497
g10
I01
sg11
g12
sg13
I00
sg14
I115
sg15
(I800
I105
tp498
sg17
(I-65
I4
I-27
tp499
sg19
g20
sg21
I103
sg22
(I63
I63
tp500
sbsI104
(iniveau
NiveauAction
p501
(dp502
g10
I01
sg11
g35
sg13
I01
sg14
I117
sg15
(I800
I225
tp503
sg17
(I-37
I-3
I-112
tp504
sg19
g20
sg21
I104
sg22
(I69
I69
tp505
sbsI105
(iniveau
NiveauAction
p506
(dp507
g10
I01
sg11
g35
sg13
I01
sg14
I119
sg15
(I800
I121
tp508
sg17
(I-20
I19
I175
tp509
sg19
g20
sg21
I105
sg22
(I44
I44
tp510
sbsI106
(iniveau
NiveauAction
p511
(dp512
g10
I01
sg11
g35
sg13
I01
sg14
I120
sg15
(I800
I377
tp513
sg17
(I-36
I-13
I156
tp514
sg19
g20
sg21
I106
sg22
(I32
I32
tp515
sbsI107
(iniveau
NiveauAction
p516
(dp517
g10
I01
sg11
g35
sg13
I01
sg14
I122
sg15
(I800
I302
tp518
sg17
(I-31
I-14
I173
tp519
sg19
g20
sg21
I107
sg22
(I53
I53
tp520
sbsI108
(iniveau
NiveauAction
p521
(dp522
g10
I01
sg11
g35
sg13
I01
sg14
I123
sg15
(I800
I486
tp523
sg17
(I-38
I-18
I-22
tp524
sg19
g20
sg21
I108
sg22
(I41
I41
tp525
sbsI109
(iniveau
NiveauAction
p526
(dp527
g10
I01
sg11
g26
sg13
I00
sg14
I124
sg15
(I800
I332
tp528
sg17
g28
sg19
g20
sg21
I109
sg22
g29
sbsI110
(iniveau
NiveauAction
p529
(dp530
g10
I01
sg11
g26
sg13
I00
sg14
I124
sg15
(I800
I222
tp531
sg17
g28
sg19
g20
sg21
I110
sg22
g29
sbsI111
(iniveau
NiveauAction
p532
(dp533
g10
I01
sg11
g35
sg13
I01
sg14
I125
sg15
(I800
I247
tp534
sg17
(I-21
I-20
I142
tp535
sg19
g20
sg21
I111
sg22
(I33
I33
tp536
sbsI112
(iniveau
NiveauAction
p537
(dp538
g10
I01
sg11
g35
sg13
I01
sg14
I125
sg15
(I800
I208
tp539
sg17
(I-45
I-17
I-78
tp540
sg19
g20
sg21
I112
sg22
(I60
I60
tp541
sbsI113
(iniveau
NiveauAction
p542
(dp543
g10
I01
sg11
g12
sg13
I00
sg14
I126
sg15
(I800
I248
tp544
sg17
(I-48
I6
I-33
tp545
sg19
g20
sg21
I113
sg22
(I88
I88
tp546
sbsI114
(iniveau
NiveauAction
p547
(dp548
g10
I01
sg11
g26
sg13
I00
sg14
I127
sg15
(I800
I451
tp549
sg17
g28
sg19
g20
sg21
I114
sg22
g29
sbsI115
(iniveau
NiveauAction
p550
(dp551
g10
I01
sg11
g35
sg13
I01
sg14
I127
sg15
(I800
I493
tp552
sg17
(I-27
I0
I100
tp553
sg19
g20
sg21
I115
sg22
(I39
I39
tp554
sbsI116
(iniveau
NiveauAction
p555
(dp556
g10
I01
sg11
g35
sg13
I01
sg14
I127
sg15
(I800
I141
tp557
sg17
(I-19
I-7
I9
tp558
sg19
g20
sg21
I116
sg22
(I63
I63
tp559
sbsI117
(iniveau
NiveauAction
p560
(dp561
g10
I01
sg11
g12
sg13
I00
sg14
I129
sg15
(I800
I242
tp562
sg17
(I-74
I28
I22
tp563
sg19
g20
sg21
I117
sg22
(I72
I72
tp564
sbsI118
(iniveau
NiveauAction
p565
(dp566
g10
I01
sg11
g12
sg13
I00
sg14
I129
sg15
(I800
I422
tp567
sg17
(I-47
I-13
I66
tp568
sg19
g20
sg21
I118
sg22
(I82
I82
tp569
sbsI119
(iniveau
NiveauAction
p570
(dp571
g10
I01
sg11
g12
sg13
I00
sg14
I130
sg15
(I800
I164
tp572
sg17
(I-39
I-20
I92
tp573
sg19
g20
sg21
I119
sg22
(I63
I63
tp574
sbsI120
(iniveau
NiveauAction
p575
(dp576
g10
I01
sg11
g35
sg13
I01
sg14
I132
sg15
(I800
I168
tp577
sg17
(I-14
I12
I154
tp578
sg19
g20
sg21
I120
sg22
(I66
I66
tp579
sbsI121
(iniveau
NiveauAction
p580
(dp581
g10
I01
sg11
g35
sg13
I01
sg14
I132
sg15
(I800
I121
tp582
sg17
(I-38
I-12
I-105
tp583
sg19
g20
sg21
I121
sg22
(I53
I53
tp584
sbsI122
(iniveau
NiveauAction
p585
(dp586
g10
I01
sg11
g35
sg13
I01
sg14
I134
sg15
(I800
I58
tp587
sg17
(I-45
I-19
I8
tp588
sg19
g20
sg21
I122
sg22
(I36
I36
tp589
sbsI123
(iniveau
NiveauAction
p590
(dp591
g10
I01
sg11
g26
sg13
I00
sg14
I136
sg15
(I800
I442
tp592
sg17
g28
sg19
g20
sg21
I123
sg22
g29
sbsI124
(iniveau
NiveauAction
p593
(dp594
g10
I01
sg11
g26
sg13
I00
sg14
I138
sg15
(I800
I16
tp595
sg17
g28
sg19
g20
sg21
I124
sg22
g29
sbsI125
(iniveau
NiveauAction
p596
(dp597
g10
I01
sg11
g12
sg13
I00
sg14
I138
sg15
(I800
I138
tp598
sg17
(I-84
I-1
I-74
tp599
sg19
g20
sg21
I125
sg22
(I61
I61
tp600
sbsI126
(iniveau
NiveauAction
p601
(dp602
g10
I01
sg11
g35
sg13
I01
sg14
I139
sg15
(I800
I11
tp603
sg17
(I-40
I12
I56
tp604
sg19
g20
sg21
I126
sg22
(I34
I34
tp605
sbsI127
(iniveau
NiveauAction
p606
(dp607
g10
I01
sg11
g35
sg13
I01
sg14
I140
sg15
(I800
I99
tp608
sg17
(I-32
I13
I39
tp609
sg19
g20
sg21
I127
sg22
(I58
I58
tp610
sbsI128
(iniveau
NiveauAction
p611
(dp612
g10
I01
sg11
g26
sg13
I00
sg14
I141
sg15
(I800
I490
tp613
sg17
g28
sg19
g20
sg21
I128
sg22
g29
sbsI129
(iniveau
NiveauAction
p614
(dp615
g10
I01
sg11
g35
sg13
I01
sg14
I142
sg15
(I800
I101
tp616
sg17
(I-42
I-18
I160
tp617
sg19
g20
sg21
I129
sg22
(I32
I32
tp618
sbsI130
(iniveau
NiveauAction
p619
(dp620
g10
I01
sg11
g26
sg13
I00
sg14
I142
sg15
(I800
I485
tp621
sg17
g28
sg19
g20
sg21
I130
sg22
g29
sbsI131
(iniveau
NiveauAction
p622
(dp623
g10
I01
sg11
g35
sg13
I01
sg14
I142
sg15
(I800
I428
tp624
sg17
(I-39
I16
I-3
tp625
sg19
g20
sg21
I131
sg22
(I67
I67
tp626
sbsI132
(iniveau
NiveauAction
p627
(dp628
g10
I01
sg11
g26
sg13
I00
sg14
I143
sg15
(I800
I149
tp629
sg17
g28
sg19
g20
sg21
I132
sg22
g29
sbsI133
(iniveau
NiveauAction
p630
(dp631
g10
I01
sg11
g26
sg13
I00
sg14
I143
sg15
(I800
I273
tp632
sg17
g28
sg19
g20
sg21
I133
sg22
g29
sbsI134
(iniveau
NiveauAction
p633
(dp634
g10
I01
sg11
g12
sg13
I00
sg14
I144
sg15
(I800
I184
tp635
sg17
(I-66
I-16
I97
tp636
sg19
g20
sg21
I134
sg22
(I77
I77
tp637
sbsI135
(iniveau
NiveauAction
p638
(dp639
g10
I01
sg11
g12
sg13
I00
sg14
I146
sg15
(I800
I339
tp640
sg17
(I-34
I25
I34
tp641
sg19
g20
sg21
I135
sg22
(I97
I97
tp642
sbsI136
(iniveau
NiveauAction
p643
(dp644
g10
I01
sg11
g12
sg13
I00
sg14
I148
sg15
(I800
I163
tp645
sg17
(I-61
I-4
I-117
tp646
sg19
g20
sg21
I136
sg22
(I67
I67
tp647
sbsI137
(iniveau
NiveauAction
p648
(dp649
g10
I01
sg11
g35
sg13
I01
sg14
I150
sg15
(I800
I45
tp650
sg17
(I-41
I5
I104
tp651
sg19
g20
sg21
I137
sg22
(I43
I43
tp652
sbsI138
(iniveau
NiveauAction
p653
(dp654
g10
I01
sg11
g35
sg13
I01
sg14
I150
sg15
(I800
I373
tp655
sg17
(I-23
I-10
I50
tp656
sg19
g20
sg21
I138
sg22
(I58
I58
tp657
sbsI139
(iniveau
NiveauAction
p658
(dp659
g10
I01
sg11
g12
sg13
I00
sg14
I151
sg15
(I800
I430
tp660
sg17
(I-88
I-13
I-53
tp661
sg19
g20
sg21
I139
sg22
(I93
I93
tp662
sbsI140
(iniveau
NiveauAction
p663
(dp664
g10
I01
sg11
g12
sg13
I00
sg14
I151
sg15
(I800
I334
tp665
sg17
(I-75
I24
I-51
tp666
sg19
g20
sg21
I140
sg22
(I57
I57
tp667
sbsI141
(iniveau
NiveauAction
p668
(dp669
g10
I01
sg11
g12
sg13
I00
sg14
I153
sg15
(I800
I374
tp670
sg17
(I-59
I-4
I-146
tp671
sg19
g20
sg21
I141
sg22
(I79
I79
tp672
sbsI142
(iniveau
NiveauAction
p673
(dp674
g10
I01
sg11
g35
sg13
I01
sg14
I154
sg15
(I800
I162
tp675
sg17
(I-21
I9
I-72
tp676
sg19
g20
sg21
I142
sg22
(I70
I70
tp677
sbsI143
(iniveau
NiveauAction
p678
(dp679
g10
I01
sg11
g35
sg13
I01
sg14
I156
sg15
(I800
I302
tp680
sg17
(I-49
I-10
I44
tp681
sg19
g20
sg21
I143
sg22
(I46
I46
tp682
sbsI144
(iniveau
NiveauAction
p683
(dp684
g10
I01
sg11
g35
sg13
I01
sg14
I158
sg15
(I800
I311
tp685
sg17
(I-24
I-1
I-1
tp686
sg19
g20
sg21
I144
sg22
(I52
I52
tp687
sbsI145
(iniveau
NiveauAction
p688
(dp689
g10
I01
sg11
g26
sg13
I00
sg14
I158
sg15
(I800
I427
tp690
sg17
g28
sg19
g20
sg21
I145
sg22
g29
sbsI146
(iniveau
NiveauAction
p691
(dp692
g10
I01
sg11
g26
sg13
I00
sg14
I159
sg15
(I800
I303
tp693
sg17
g28
sg19
g20
sg21
I146
sg22
g29
sbsI147
(iniveau
NiveauAction
p694
(dp695
g10
I01
sg11
g35
sg13
I01
sg14
I159
sg15
(I800
I318
tp696
sg17
(I-39
I13
I1
tp697
sg19
g20
sg21
I147
sg22
(I61
I61
tp698
sbsI148
(iniveau
NiveauAction
p699
(dp700
g10
I01
sg11
g35
sg13
I01
sg14
I160
sg15
(I800
I150
tp701
sg17
(I-47
I4
I-147
tp702
sg19
g20
sg21
I148
sg22
(I43
I43
tp703
sbsI149
(iniveau
NiveauAction
p704
(dp705
g10
I01
sg11
g26
sg13
I00
sg14
I162
sg15
(I800
I453
tp706
sg17
g28
sg19
g20
sg21
I149
sg22
g29
sbsI150
(iniveau
NiveauAction
p707
(dp708
g10
I01
sg11
g35
sg13
I01
sg14
I164
sg15
(I800
I0
tp709
sg17
(I-28
I9
I43
tp710
sg19
g20
sg21
I150
sg22
(I40
I40
tp711
sbsI151
(iniveau
NiveauAction
p712
(dp713
g10
I01
sg11
g35
sg13
I01
sg14
I166
sg15
(I800
I456
tp714
sg17
(I-32
I1
I-117
tp715
sg19
g20
sg21
I151
sg22
(I58
I58
tp716
sbsI152
(iniveau
NiveauAction
p717
(dp718
g10
I01
sg11
g12
sg13
I00
sg14
I167
sg15
(I800
I50
tp719
sg17
(I-81
I0
I-85
tp720
sg19
g20
sg21
I152
sg22
(I95
I95
tp721
sbsI153
(iniveau
NiveauAction
p722
(dp723
g10
I01
sg11
g26
sg13
I00
sg14
I169
sg15
(I800
I236
tp724
sg17
g28
sg19
g20
sg21
I153
sg22
g29
sbsI154
(iniveau
NiveauAction
p725
(dp726
g10
I01
sg11
g35
sg13
I01
sg14
I171
sg15
(I800
I96
tp727
sg17
(I-11
I-6
I-107
tp728
sg19
g20
sg21
I154
sg22
(I45
I45
tp729
sbsI155
(iniveau
NiveauAction
p730
(dp731
g10
I01
sg11
g12
sg13
I00
sg14
I171
sg15
(I800
I31
tp732
sg17
(I-32
I-4
I5
tp733
sg19
g20
sg21
I155
sg22
(I50
I50
tp734
sbsI156
(iniveau
NiveauAction
p735
(dp736
g10
I01
sg11
g35
sg13
I01
sg14
I172
sg15
(I800
I494
tp737
sg17
(I-23
I-8
I175
tp738
sg19
g20
sg21
I156
sg22
(I34
I34
tp739
sbsI157
(iniveau
NiveauAction
p740
(dp741
g10
I01
sg11
g35
sg13
I01
sg14
I172
sg15
(I800
I357
tp742
sg17
(I-36
I8
I-154
tp743
sg19
g20
sg21
I157
sg22
(I37
I37
tp744
sbsI158
(iniveau
NiveauAction
p745
(dp746
g10
I01
sg11
g35
sg13
I01
sg14
I173
sg15
(I800
I274
tp747
sg17
(I-21
I4
I-166
tp748
sg19
g20
sg21
I158
sg22
(I45
I45
tp749
sbsI159
(iniveau
NiveauAction
p750
(dp751
g10
I01
sg11
g35
sg13
I01
sg14
I174
sg15
(I800
I403
tp752
sg17
(I-35
I-9
I-75
tp753
sg19
g20
sg21
I159
sg22
(I30
I30
tp754
sbsI160
(iniveau
NiveauAction
p755
(dp756
g10
I01
sg11
g26
sg13
I00
sg14
I175
sg15
(I800
I426
tp757
sg17
g28
sg19
g20
sg21
I160
sg22
g29
sbsI161
(iniveau
NiveauAction
p758
(dp759
g10
I01
sg11
g12
sg13
I00
sg14
I177
sg15
(I800
I366
tp760
sg17
(I-66
I-10
I-96
tp761
sg19
g20
sg21
I161
sg22
(I99
I99
tp762
sbsI162
(iniveau
NiveauAction
p763
(dp764
g10
I01
sg11
g12
sg13
I00
sg14
I179
sg15
(I800
I251
tp765
sg17
(I-77
I-15
I103
tp766
sg19
g20
sg21
I162
sg22
(I62
I62
tp767
sbsI163
(iniveau
NiveauAction
p768
(dp769
g10
I01
sg11
g35
sg13
I01
sg14
I179
sg15
(I800
I336
tp770
sg17
(I-13
I-18
I-128
tp771
sg19
g20
sg21
I163
sg22
(I36
I36
tp772
sbsI164
(iniveau
NiveauAction
p773
(dp774
g10
I01
sg11
g26
sg13
I00
sg14
I181
sg15
(I800
I345
tp775
sg17
g28
sg19
g20
sg21
I164
sg22
g29
sbsI165
(iniveau
NiveauAction
p776
(dp777
g10
I01
sg11
g12
sg13
I00
sg14
I182
sg15
(I800
I107
tp778
sg17
(I-68
I-8
I36
tp779
sg19
g20
sg21
I165
sg22
(I81
I81
tp780
sbsI166
(iniveau
NiveauAction
p781
(dp782
g10
I01
sg11
g26
sg13
I00
sg14
I182
sg15
(I800
I488
tp783
sg17
g28
sg19
g20
sg21
I166
sg22
g29
sbsI167
(iniveau
NiveauAction
p784
(dp785
g10
I01
sg11
g12
sg13
I00
sg14
I183
sg15
(I800
I453
tp786
sg17
(I-89
I-18
I-49
tp787
sg19
g20
sg21
I167
sg22
(I50
I50
tp788
sbsI168
(iniveau
NiveauAction
p789
(dp790
g10
I01
sg11
g12
sg13
I00
sg14
I183
sg15
(I800
I259
tp791
sg17
(I-50
I-20
I136
tp792
sg19
g20
sg21
I168
sg22
(I97
I97
tp793
sbsI169
(iniveau
NiveauAction
p794
(dp795
g10
I01
sg11
g12
sg13
I00
sg14
I183
sg15
(I800
I48
tp796
sg17
(I-74
I-24
I-105
tp797
sg19
g20
sg21
I169
sg22
(I79
I79
tp798
sbsI170
(iniveau
NiveauAction
p799
(dp800
g10
I01
sg11
g26
sg13
I00
sg14
I183
sg15
(I800
I118
tp801
sg17
g28
sg19
g20
sg21
I170
sg22
g29
sbsI171
(iniveau
NiveauAction
p802
(dp803
g10
I01
sg11
g35
sg13
I01
sg14
I183
sg15
(I800
I219
tp804
sg17
(I-23
I-1
I15
tp805
sg19
g20
sg21
I171
sg22
(I55
I55
tp806
sbsI172
(iniveau
NiveauAction
p807
(dp808
g10
I01
sg11
g12
sg13
I00
sg14
I185
sg15
(I800
I59
tp809
sg17
(I-73
I20
I48
tp810
sg19
g20
sg21
I172
sg22
(I63
I63
tp811
sbsI173
(iniveau
NiveauAction
p812
(dp813
g10
I01
sg11
g35
sg13
I01
sg14
I187
sg15
(I800
I299
tp814
sg17
(I-21
I-8
I-118
tp815
sg19
g20
sg21
I173
sg22
(I60
I60
tp816
sbsI174
(iniveau
NiveauAction
p817
(dp818
g10
I01
sg11
g35
sg13
I01
sg14
I189
sg15
(I800
I328
tp819
sg17
(I-23
I20
I-145
tp820
sg19
g20
sg21
I174
sg22
(I61
I61
tp821
sbsI175
(iniveau
NiveauAction
p822
(dp823
g10
I01
sg11
g12
sg13
I00
sg14
I190
sg15
(I800
I315
tp824
sg17
(I-100
I-15
I24
tp825
sg19
g20
sg21
I175
sg22
(I68
I68
tp826
sbsI176
(iniveau
NiveauAction
p827
(dp828
g10
I01
sg11
g12
sg13
I00
sg14
I191
sg15
(I800
I241
tp829
sg17
(I-48
I-17
I26
tp830
sg19
g20
sg21
I176
sg22
(I90
I90
tp831
sbsI177
(iniveau
NiveauAction
p832
(dp833
g10
I01
sg11
g12
sg13
I00
sg14
I191
sg15
(I800
I324
tp834
sg17
(I-32
I4
I-31
tp835
sg19
g20
sg21
I177
sg22
(I53
I53
tp836
sbsI178
(iniveau
NiveauAction
p837
(dp838
g10
I01
sg11
g12
sg13
I00
sg14
I191
sg15
(I800
I300
tp839
sg17
(I-43
I-3
I167
tp840
sg19
g20
sg21
I178
sg22
(I62
I62
tp841
sbsI179
(iniveau
NiveauAction
p842
(dp843
g10
I01
sg11
g35
sg13
I01
sg14
I193
sg15
(I800
I160
tp844
sg17
(I-22
I14
I60
tp845
sg19
g20
sg21
I179
sg22
(I30
I30
tp846
sbsI180
(iniveau
NiveauAction
p847
(dp848
g10
I01
sg11
g35
sg13
I01
sg14
I194
sg15
(I800
I440
tp849
sg17
(I-24
I14
I99
tp850
sg19
g20
sg21
I180
sg22
(I34
I34
tp851
sbsI181
(iniveau
NiveauAction
p852
(dp853
g10
I01
sg11
g35
sg13
I01
sg14
I196
sg15
(I800
I347
tp854
sg17
(I-14
I10
I171
tp855
sg19
g20
sg21
I181
sg22
(I39
I39
tp856
sbsI182
(iniveau
NiveauAction
p857
(dp858
g10
I01
sg11
g35
sg13
I01
sg14
I197
sg15
(I800
I316
tp859
sg17
(I-12
I-4
I-26
tp860
sg19
g20
sg21
I182
sg22
(I70
I70
tp861
sbsI183
(iniveau
NiveauAction
p862
(dp863
g10
I01
sg11
g12
sg13
I00
sg14
I199
sg15
(I800
I115
tp864
sg17
(I-78
I17
I-166
tp865
sg19
g20
sg21
I183
sg22
(I98
I98
tp866
sbsI184
(iniveau
NiveauAction
p867
(dp868
g10
I01
sg11
g35
sg13
I01
sg14
I200
sg15
(I800
I434
tp869
sg17
(I-34
I-19
I-85
tp870
sg19
g20
sg21
I184
sg22
(I55
I55
tp871
sbsI185
(iniveau
NiveauAction
p872
(dp873
g10
I01
sg11
g12
sg13
I00
sg14
I202
sg15
(I800
I50
tp874
sg17
(I-44
I24
I80
tp875
sg19
g20
sg21
I185
sg22
(I66
I66
tp876
sbsI186
(iniveau
NiveauAction
p877
(dp878
g10
I01
sg11
g12
sg13
I00
sg14
I203
sg15
(I800
I9
tp879
sg17
(I-91
I21
I100
tp880
sg19
g20
sg21
I186
sg22
(I65
I65
tp881
sbsI187
(iniveau
NiveauAction
p882
(dp883
g10
I01
sg11
g12
sg13
I00
sg14
I203
sg15
(I800
I72
tp884
sg17
(I-47
I-13
I-28
tp885
sg19
g20
sg21
I187
sg22
(I90
I90
tp886
sbsI188
(iniveau
NiveauAction
p887
(dp888
g10
I01
sg11
g12
sg13
I00
sg14
I205
sg15
(I800
I206
tp889
sg17
(I-84
I18
I24
tp890
sg19
g20
sg21
I188
sg22
(I74
I74
tp891
sbsI189
(iniveau
NiveauAction
p892
(dp893
g10
I01
sg11
g12
sg13
I00
sg14
I207
sg15
(I800
I252
tp894
sg17
(I-49
I0
I2
tp895
sg19
g20
sg21
I189
sg22
(I66
I66
tp896
sbsI190
(iniveau
NiveauAction
p897
(dp898
g10
I01
sg11
g12
sg13
I00
sg14
I207
sg15
(I800
I375
tp899
sg17
(I-75
I26
I-111
tp900
sg19
g20
sg21
I190
sg22
(I55
I55
tp901
sbsI191
(iniveau
NiveauAction
p902
(dp903
g10
I01
sg11
g35
sg13
I01
sg14
I207
sg15
(I800
I284
tp904
sg17
(I-17
I18
I148
tp905
sg19
g20
sg21
I191
sg22
(I42
I42
tp906
sbsI192
(iniveau
NiveauAction
p907
(dp908
g10
I01
sg11
g12
sg13
I00
sg14
I208
sg15
(I800
I144
tp909
sg17
(I-68
I-29
I31
tp910
sg19
g20
sg21
I192
sg22
(I88
I88
tp911
sbsI193
(iniveau
NiveauAction
p912
(dp913
g10
I01
sg11
g12
sg13
I00
sg14
I209
sg15
(I800
I445
tp914
sg17
(I-37
I22
I-106
tp915
sg19
g20
sg21
I193
sg22
(I51
I51
tp916
sbsI194
(iniveau
NiveauAction
p917
(dp918
g10
I01
sg11
g12
sg13
I00
sg14
I210
sg15
(I800
I343
tp919
sg17
(I-69
I11
I100
tp920
sg19
g20
sg21
I194
sg22
(I86
I86
tp921
sbsI195
(iniveau
NiveauAction
p922
(dp923
g10
I01
sg11
g35
sg13
I01
sg14
I212
sg15
(I800
I329
tp924
sg17
(I-29
I-18
I15
tp925
sg19
g20
sg21
I195
sg22
(I56
I56
tp926
sbsI196
(iniveau
NiveauAction
p927
(dp928
g10
I01
sg11
g26
sg13
I00
sg14
I214
sg15
(I800
I146
tp929
sg17
g28
sg19
g20
sg21
I196
sg22
g29
sbsI197
(iniveau
NiveauAction
p930
(dp931
g10
I01
sg11
g12
sg13
I00
sg14
I216
sg15
(I800
I255
tp932
sg17
(I-90
I-25
I0
tp933
sg19
g20
sg21
I197
sg22
(I67
I67
tp934
sbsI198
(iniveau
NiveauAction
p935
(dp936
g10
I01
sg11
g35
sg13
I01
sg14
I217
sg15
(I800
I362
tp937
sg17
(I-45
I-11
I-63
tp938
sg19
g20
sg21
I198
sg22
(I47
I47
tp939
sbsI199
(iniveau
NiveauAction
p940
(dp941
g10
I01
sg11
g12
sg13
I00
sg14
I218
sg15
(I800
I459
tp942
sg17
(I-52
I-11
I-139
tp943
sg19
g20
sg21
I199
sg22
(I55
I55
tp944
sbsI200
(iniveau
NiveauAction
p945
(dp946
g10
I01
sg11
g26
sg13
I00
sg14
I219
sg15
(I800
I306
tp947
sg17
g28
sg19
g20
sg21
I200
sg22
g29
sbsI201
(iniveau
NiveauAction
p948
(dp949
g10
I01
sg11
g12
sg13
I00
sg14
I221
sg15
(I800
I240
tp950
sg17
(I-100
I-7
I-117
tp951
sg19
g20
sg21
I201
sg22
(I52
I52
tp952
sbsI202
(iniveau
NiveauAction
p953
(dp954
g10
I01
sg11
g35
sg13
I01
sg14
I223
sg15
(I800
I167
tp955
sg17
(I-42
I13
I-160
tp956
sg19
g20
sg21
I202
sg22
(I58
I58
tp957
sbsI203
(iniveau
NiveauAction
p958
(dp959
g10
I01
sg11
g35
sg13
I01
sg14
I224
sg15
(I800
I319
tp960
sg17
(I-43
I0
I172
tp961
sg19
g20
sg21
I203
sg22
(I64
I64
tp962
sbsI204
(iniveau
NiveauAction
p963
(dp964
g10
I01
sg11
g26
sg13
I00
sg14
I225
sg15
(I800
I294
tp965
sg17
g28
sg19
g20
sg21
I204
sg22
g29
sbsI205
(iniveau
NiveauAction
p966
(dp967
g10
I01
sg11
g35
sg13
I01
sg14
I227
sg15
(I800
I111
tp968
sg17
(I-24
I8
I-38
tp969
sg19
g20
sg21
I205
sg22
(I33
I33
tp970
sbsI206
(iniveau
NiveauAction
p971
(dp972
g10
I01
sg11
g35
sg13
I01
sg14
I230
sg15
(I800
I298
tp973
sg17
(I-48
I-2
I-102
tp974
sg19
g20
sg21
I206
sg22
(I47
I47
tp975
sbsI207
(iniveau
NiveauAction
p976
(dp977
g10
I01
sg11
g12
sg13
I00
sg14
I232
sg15
(I800
I213
tp978
sg17
(I-97
I-19
I-79
tp979
sg19
g20
sg21
I207
sg22
(I90
I90
tp980
sbsI208
(iniveau
NiveauAction
p981
(dp982
g10
I01
sg11
g35
sg13
I01
sg14
I232
sg15
(I800
I19
tp983
sg17
(I-25
I19
I-108
tp984
sg19
g20
sg21
I208
sg22
(I63
I63
tp985
sbsI209
(iniveau
NiveauAction
p986
(dp987
g10
I01
sg11
g12
sg13
I00
sg14
I234
sg15
(I800
I101
tp988
sg17
(I-88
I-30
I173
tp989
sg19
g20
sg21
I209
sg22
(I51
I51
tp990
sbsI210
(iniveau
NiveauAction
p991
(dp992
g10
I01
sg11
g12
sg13
I00
sg14
I236
sg15
(I800
I417
tp993
sg17
(I-54
I-5
I-70
tp994
sg19
g20
sg21
I210
sg22
(I72
I72
tp995
sbsI211
(iniveau
NiveauAction
p996
(dp997
g10
I01
sg11
g12
sg13
I00
sg14
I236
sg15
(I800
I168
tp998
sg17
(I-76
I-18
I-24
tp999
sg19
g20
sg21
I211
sg22
(I71
I71
tp1000
sbsI212
(iniveau
NiveauAction
p1001
(dp1002
g10
I01
sg11
g12
sg13
I00
sg14
I238
sg15
(I800
I359
tp1003
sg17
(I-99
I-8
I90
tp1004
sg19
g20
sg21
I212
sg22
(I79
I79
tp1005
sbsI213
(iniveau
NiveauAction
p1006
(dp1007
g10
I01
sg11
g12
sg13
I00
sg14
I238
sg15
(I800
I195
tp1008
sg17
(I-84
I-7
I144
tp1009
sg19
g20
sg21
I213
sg22
(I94
I94
tp1010
sbsI214
(iniveau
NiveauAction
p1011
(dp1012
g10
I01
sg11
g12
sg13
I00
sg14
I240
sg15
(I800
I273
tp1013
sg17
(I-47
I7
I73
tp1014
sg19
g20
sg21
I214
sg22
(I56
I56
tp1015
sbsI215
(iniveau
NiveauAction
p1016
(dp1017
g10
I01
sg11
g35
sg13
I01
sg14
I242
sg15
(I800
I425
tp1018
sg17
(I-19
I11
I-26
tp1019
sg19
g20
sg21
I215
sg22
(I70
I70
tp1020
sbsI216
(iniveau
NiveauAction
p1021
(dp1022
g10
I01
sg11
g35
sg13
I01
sg14
I242
sg15
(I800
I136
tp1023
sg17
(I-37
I4
I-15
tp1024
sg19
g20
sg21
I216
sg22
(I31
I31
tp1025
sbsI217
(iniveau
NiveauAction
p1026
(dp1027
g10
I01
sg11
g26
sg13
I00
sg14
I243
sg15
(I800
I25
tp1028
sg17
g28
sg19
g20
sg21
I217
sg22
g29
sbsI218
(iniveau
NiveauAction
p1029
(dp1030
g10
I01
sg11
g35
sg13
I01
sg14
I245
sg15
(I800
I219
tp1031
sg17
(I-37
I-19
I42
tp1032
sg19
g20
sg21
I218
sg22
(I30
I30
tp1033
sbsI219
(iniveau
NiveauAction
p1034
(dp1035
g10
I01
sg11
g35
sg13
I01
sg14
I245
sg15
(I800
I17
tp1036
sg17
(I-10
I-5
I-38
tp1037
sg19
g20
sg21
I219
sg22
(I47
I47
tp1038
sbsI220
(iniveau
NiveauAction
p1039
(dp1040
g10
I01
sg11
g12
sg13
I00
sg14
I248
sg15
(I800
I400
tp1041
sg17
(I-68
I27
I-129
tp1042
sg19
g20
sg21
I220
sg22
(I73
I73
tp1043
sbsI221
(iniveau
NiveauAction
p1044
(dp1045
g10
I01
sg11
g26
sg13
I00
sg14
I248
sg15
(I800
I472
tp1046
sg17
g28
sg19
g20
sg21
I221
sg22
g29
sbsI222
(iniveau
NiveauAction
p1047
(dp1048
g10
I01
sg11
g35
sg13
I01
sg14
I249
sg15
(I800
I324
tp1049
sg17
(I-33
I14
I35
tp1050
sg19
g20
sg21
I222
sg22
(I70
I70
tp1051
sbsI223
(iniveau
NiveauAction
p1052
(dp1053
g10
I01
sg11
g12
sg13
I00
sg14
I251
sg15
(I800
I369
tp1054
sg17
(I-98
I26
I145
tp1055
sg19
g20
sg21
I223
sg22
(I76
I76
tp1056
sbsI224
(iniveau
NiveauAction
p1057
(dp1058
g10
I01
sg11
g12
sg13
I00
sg14
I253
sg15
(I800
I126
tp1059
sg17
(I-65
I20
I31
tp1060
sg19
g20
sg21
I224
sg22
(I92
I92
tp1061
sbsI225
(iniveau
NiveauAction
p1062
(dp1063
g10
I01
sg11
g26
sg13
I00
sg14
I253
sg15
(I800
I297
tp1064
sg17
g28
sg19
g20
sg21
I225
sg22
g29
sbsI226
(iniveau
NiveauAction
p1065
(dp1066
g10
I01
sg11
g12
sg13
I00
sg14
I255
sg15
(I800
I427
tp1067
sg17
(I-71
I19
I175
tp1068
sg19
g20
sg21
I226
sg22
(I68
I68
tp1069
sbsI227
(iniveau
NiveauAction
p1070
(dp1071
g10
I01
sg11
g12
sg13
I00
sg14
I257
sg15
(I800
I277
tp1072
sg17
(I-94
I-11
I-108
tp1073
sg19
g20
sg21
I227
sg22
(I96
I96
tp1074
sbsI228
(iniveau
NiveauAction
p1075
(dp1076
g10
I01
sg11
g35
sg13
I01
sg14
I259
sg15
(I800
I465
tp1077
sg17
(I-49
I-9
I-160
tp1078
sg19
g20
sg21
I228
sg22
(I36
I36
tp1079
sbsI229
(iniveau
NiveauAction
p1080
(dp1081
g10
I01
sg11
g35
sg13
I01
sg14
I260
sg15
(I800
I107
tp1082
sg17
(I-18
I-16
I31
tp1083
sg19
g20
sg21
I229
sg22
(I30
I30
tp1084
sbsI230
(iniveau
NiveauAction
p1085
(dp1086
g10
I01
sg11
g35
sg13
I01
sg14
I260
sg15
(I800
I18
tp1087
sg17
(I-39
I-20
I83
tp1088
sg19
g20
sg21
I230
sg22
(I42
I42
tp1089
sbsI231
(iniveau
NiveauAction
p1090
(dp1091
g10
I01
sg11
g12
sg13
I00
sg14
I261
sg15
(I800
I353
tp1092
sg17
(I-91
I-13
I38
tp1093
sg19
g20
sg21
I231
sg22
(I74
I74
tp1094
sbsI232
(iniveau
NiveauAction
p1095
(dp1096
g10
I01
sg11
g35
sg13
I01
sg14
I261
sg15
(I800
I359
tp1097
sg17
(I-35
I4
I-147
tp1098
sg19
g20
sg21
I232
sg22
(I31
I31
tp1099
sbsI233
(iniveau
NiveauAction
p1100
(dp1101
g10
I01
sg11
g26
sg13
I00
sg14
I262
sg15
(I800
I328
tp1102
sg17
g28
sg19
g20
sg21
I233
sg22
g29
sbsI234
(iniveau
NiveauAction
p1103
(dp1104
g10
I01
sg11
g26
sg13
I00
sg14
I264
sg15
(I800
I20
tp1105
sg17
g28
sg19
g20
sg21
I234
sg22
g29
sbsI235
(iniveau
NiveauAction
p1106
(dp1107
g10
I01
sg11
g12
sg13
I00
sg14
I266
sg15
(I800
I317
tp1108
sg17
(I-73
I-14
I149
tp1109
sg19
g20
sg21
I235
sg22
(I70
I70
tp1110
sbsI236
(iniveau
NiveauAction
p1111
(dp1112
g10
I01
sg11
g26
sg13
I00
sg14
I267
sg15
(I800
I250
tp1113
sg17
g28
sg19
g20
sg21
I236
sg22
g29
sbsI237
(iniveau
NiveauAction
p1114
(dp1115
g10
I01
sg11
g12
sg13
I00
sg14
I269
sg15
(I800
I267
tp1116
sg17
(I-30
I11
I-59
tp1117
sg19
g20
sg21
I237
sg22
(I92
I92
tp1118
sbsI238
(iniveau
NiveauAction
p1119
(dp1120
g10
I01
sg11
g26
sg13
I00
sg14
I272
sg15
(I800
I222
tp1121
sg17
g28
sg19
g20
sg21
I238
sg22
g29
sbsI239
(iniveau
NiveauAction
p1122
(dp1123
g10
I01
sg11
g35
sg13
I01
sg14
I274
sg15
(I800
I362
tp1124
sg17
(I-40
I-11
I114
tp1125
sg19
g20
sg21
I239
sg22
(I65
I65
tp1126
sbsI240
(iniveau
NiveauAction
p1127
(dp1128
g10
I01
sg11
g35
sg13
I01
sg14
I274
sg15
(I800
I237
tp1129
sg17
(I-32
I-18
I21
tp1130
sg19
g20
sg21
I240
sg22
(I42
I42
tp1131
sbsI241
(iniveau
NiveauAction
p1132
(dp1133
g10
I01
sg11
g26
sg13
I00
sg14
I276
sg15
(I800
I265
tp1134
sg17
g28
sg19
g20
sg21
I241
sg22
g29
sbsI242
(iniveau
NiveauAction
p1135
(dp1136
g10
I01
sg11
g12
sg13
I00
sg14
I277
sg15
(I800
I372
tp1137
sg17
(I-86
I-28
I86
tp1138
sg19
g20
sg21
I242
sg22
(I71
I71
tp1139
sbsI243
(iniveau
NiveauAction
p1140
(dp1141
g10
I01
sg11
g12
sg13
I00
sg14
I277
sg15
(I800
I46
tp1142
sg17
(I-81
I-22
I62
tp1143
sg19
g20
sg21
I243
sg22
(I57
I57
tp1144
sbsI244
(iniveau
NiveauAction
p1145
(dp1146
g10
I01
sg11
g35
sg13
I01
sg14
I279
sg15
(I800
I215
tp1147
sg17
(I-28
I18
I7
tp1148
sg19
g20
sg21
I244
sg22
(I55
I55
tp1149
sbsI245
(iniveau
NiveauAction
p1150
(dp1151
g10
I01
sg11
g35
sg13
I01
sg14
I279
sg15
(I800
I198
tp1152
sg17
(I-10
I14
I14
tp1153
sg19
g20
sg21
I245
sg22
(I32
I32
tp1154
sbsI246
(iniveau
NiveauAction
p1155
(dp1156
g10
I01
sg11
g12
sg13
I00
sg14
I280
sg15
(I800
I494
tp1157
sg17
(I-41
I11
I104
tp1158
sg19
g20
sg21
I246
sg22
(I88
I88
tp1159
sbsI247
(iniveau
NiveauAction
p1160
(dp1161
g10
I01
sg11
g35
sg13
I01
sg14
I281
sg15
(I800
I415
tp1162
sg17
(I-23
I-8
I55
tp1163
sg19
g20
sg21
I247
sg22
(I43
I43
tp1164
sbsI248
(iniveau
NiveauAction
p1165
(dp1166
g10
I01
sg11
g35
sg13
I01
sg14
I281
sg15
(I800
I110
tp1167
sg17
(I-50
I20
I-93
tp1168
sg19
g20
sg21
I248
sg22
(I35
I35
tp1169
sbsI249
(iniveau
NiveauAction
p1170
(dp1171
g10
I01
sg11
g26
sg13
I00
sg14
I281
sg15
(I800
I298
tp1172
sg17
g28
sg19
g20
sg21
I249
sg22
g29
sbsI250
(iniveau
NiveauAction
p1173
(dp1174
g10
I01
sg11
g12
sg13
I00
sg14
I282
sg15
(I800
I385
tp1175
sg17
(I-65
I16
I-34
tp1176
sg19
g20
sg21
I250
sg22
(I89
I89
tp1177
sbsI251
(iniveau
NiveauAction
p1178
(dp1179
g10
I01
sg11
g26
sg13
I00
sg14
I284
sg15
(I800
I212
tp1180
sg17
g28
sg19
g20
sg21
I251
sg22
g29
sbsI252
(iniveau
NiveauAction
p1181
(dp1182
g10
I01
sg11
g35
sg13
I01
sg14
I284
sg15
(I800
I13
tp1183
sg17
(I-32
I-4
I177
tp1184
sg19
g20
sg21
I252
sg22
(I55
I55
tp1185
sbsI253
(iniveau
NiveauAction
p1186
(dp1187
g10
I01
sg11
g35
sg13
I01
sg14
I285
sg15
(I800
I95
tp1188
sg17
(I-42
I15
I-37
tp1189
sg19
g20
sg21
I253
sg22
(I57
I57
tp1190
sbsI254
(iniveau
NiveauAction
p1191
(dp1192
g10
I01
sg11
g12
sg13
I00
sg14
I285
sg15
(I800
I425
tp1193
sg17
(I-47
I2
I-128
tp1194
sg19
g20
sg21
I254
sg22
(I64
I64
tp1195
sbsI255
(iniveau
NiveauAction
p1196
(dp1197
g10
I01
sg11
g35
sg13
I01
sg14
I285
sg15
(I800
I422
tp1198
sg17
(I-41
I6
I-66
tp1199
sg19
g20
sg21
I255
sg22
(I46
I46
tp1200
sbsI256
(iniveau
NiveauAction
p1201
(dp1202
g10
I01
sg11
g35
sg13
I01
sg14
I286
sg15
(I800
I53
tp1203
sg17
(I-45
I-9
I80
tp1204
sg19
g20
sg21
I256
sg22
(I30
I30
tp1205
sbsI257
(iniveau
NiveauAction
p1206
(dp1207
g10
I01
sg11
g12
sg13
I00
sg14
I287
sg15
(I800
I410
tp1208
sg17
(I-84
I-13
I-4
tp1209
sg19
g20
sg21
I257
sg22
(I87
I87
tp1210
sbsI258
(iniveau
NiveauAction
p1211
(dp1212
g10
I01
sg11
g35
sg13
I01
sg14
I287
sg15
(I800
I89
tp1213
sg17
(I-25
I1
I-83
tp1214
sg19
g20
sg21
I258
sg22
(I54
I54
tp1215
sbsI259
(iniveau
NiveauAction
p1216
(dp1217
g10
I01
sg11
g35
sg13
I01
sg14
I288
sg15
(I800
I115
tp1218
sg17
(I-39
I4
I-109
tp1219
sg19
g20
sg21
I259
sg22
(I66
I66
tp1220
sbsI260
(iniveau
NiveauAction
p1221
(dp1222
g10
I01
sg11
g12
sg13
I00
sg14
I288
sg15
(I800
I175
tp1223
sg17
(I-34
I19
I36
tp1224
sg19
g20
sg21
I260
sg22
(I77
I77
tp1225
sbsI261
(iniveau
NiveauAction
p1226
(dp1227
g10
I01
sg11
g12
sg13
I00
sg14
I289
sg15
(I800
I279
tp1228
sg17
(I-46
I18
I-91
tp1229
sg19
g20
sg21
I261
sg22
(I79
I79
tp1230
sbsI262
(iniveau
NiveauAction
p1231
(dp1232
g10
I01
sg11
g35
sg13
I01
sg14
I292
sg15
(I800
I427
tp1233
sg17
(I-50
I-15
I158
tp1234
sg19
g20
sg21
I262
sg22
(I66
I66
tp1235
sbsI263
(iniveau
NiveauAction
p1236
(dp1237
g10
I01
sg11
g35
sg13
I01
sg14
I293
sg15
(I800
I464
tp1238
sg17
(I-29
I12
I-26
tp1239
sg19
g20
sg21
I263
sg22
(I51
I51
tp1240
sbsI264
(iniveau
NiveauAction
p1241
(dp1242
g10
I01
sg11
g35
sg13
I01
sg14
I293
sg15
(I800
I500
tp1243
sg17
(I-23
I17
I-85
tp1244
sg19
g20
sg21
I264
sg22
(I54
I54
tp1245
sbsI265
(iniveau
NiveauAction
p1246
(dp1247
g10
I01
sg11
g35
sg13
I01
sg14
I293
sg15
(I800
I267
tp1248
sg17
(I-43
I-3
I7
tp1249
sg19
g20
sg21
I265
sg22
(I34
I34
tp1250
sbsI266
(iniveau
NiveauAction
p1251
(dp1252
g10
I01
sg11
g12
sg13
I00
sg14
I296
sg15
(I800
I240
tp1253
sg17
(I-42
I-29
I138
tp1254
sg19
g20
sg21
I266
sg22
(I98
I98
tp1255
sbsI267
(iniveau
NiveauAction
p1256
(dp1257
g10
I01
sg11
g35
sg13
I01
sg14
I297
sg15
(I800
I70
tp1258
sg17
(I-26
I18
I-138
tp1259
sg19
g20
sg21
I267
sg22
(I48
I48
tp1260
sbsI268
(iniveau
NiveauAction
p1261
(dp1262
g10
I01
sg11
g35
sg13
I01
sg14
I297
sg15
(I800
I440
tp1263
sg17
(I-34
I-14
I178
tp1264
sg19
g20
sg21
I268
sg22
(I57
I57
tp1265
sbsI269
(iniveau
NiveauAction
p1266
(dp1267
g10
I01
sg11
g35
sg13
I01
sg14
I299
sg15
(I800
I101
tp1268
sg17
(I-19
I-10
I-171
tp1269
sg19
g20
sg21
I269
sg22
(I52
I52
tp1270
sbsI270
(iniveau
NiveauAction
p1271
(dp1272
g10
I01
sg11
g12
sg13
I00
sg14
I299
sg15
(I800
I429
tp1273
sg17
(I-30
I3
I-74
tp1274
sg19
g20
sg21
I270
sg22
(I54
I54
tp1275
sbsI271
(iniveau
NiveauAction
p1276
(dp1277
g10
I01
sg11
g35
sg13
I01
sg14
I301
sg15
(I800
I383
tp1278
sg17
(I-26
I-13
I82
tp1279
sg19
g20
sg21
I271
sg22
(I37
I37
tp1280
sbsI272
(iniveau
NiveauAction
p1281
(dp1282
g10
I01
sg11
g12
sg13
I00
sg14
I303
sg15
(I800
I361
tp1283
sg17
(I-55
I-24
I107
tp1284
sg19
g20
sg21
I272
sg22
(I92
I92
tp1285
sbsI273
(iniveau
NiveauAction
p1286
(dp1287
g10
I01
sg11
g12
sg13
I00
sg14
I305
sg15
(I800
I157
tp1288
sg17
(I-54
I-23
I21
tp1289
sg19
g20
sg21
I273
sg22
(I75
I75
tp1290
sbsI274
(iniveau
NiveauAction
p1291
(dp1292
g10
I01
sg11
g35
sg13
I01
sg14
I306
sg15
(I800
I257
tp1293
sg17
(I-31
I16
I-91
tp1294
sg19
g20
sg21
I274
sg22
(I50
I50
tp1295
sbsI275
(iniveau
NiveauAction
p1296
(dp1297
g10
I01
sg11
g12
sg13
I00
sg14
I307
sg15
(I800
I386
tp1298
sg17
(I-78
I7
I-31
tp1299
sg19
g20
sg21
I275
sg22
(I59
I59
tp1300
sbsI276
(iniveau
NiveauAction
p1301
(dp1302
g10
I01
sg11
g26
sg13
I00
sg14
I308
sg15
(I800
I461
tp1303
sg17
g28
sg19
g20
sg21
I276
sg22
g29
sbsI277
(iniveau
NiveauAction
p1304
(dp1305
g10
I01
sg11
g35
sg13
I01
sg14
I308
sg15
(I800
I437
tp1306
sg17
(I-21
I12
I50
tp1307
sg19
g20
sg21
I277
sg22
(I56
I56
tp1308
sbsI278
(iniveau
NiveauAction
p1309
(dp1310
g10
I01
sg11
g12
sg13
I00
sg14
I308
sg15
(I800
I368
tp1311
sg17
(I-46
I-28
I70
tp1312
sg19
g20
sg21
I278
sg22
(I72
I72
tp1313
sbsI279
(iniveau
NiveauAction
p1314
(dp1315
g10
I01
sg11
g26
sg13
I00
sg14
I308
sg15
(I800
I95
tp1316
sg17
g28
sg19
g20
sg21
I279
sg22
g29
sbsI280
(iniveau
NiveauAction
p1317
(dp1318
g10
I01
sg11
g35
sg13
I01
sg14
I309
sg15
(I800
I414
tp1319
sg17
(I-30
I-9
I-158
tp1320
sg19
g20
sg21
I280
sg22
(I62
I62
tp1321
sbsI281
(iniveau
NiveauAction
p1322
(dp1323
g10
I01
sg11
g35
sg13
I01
sg14
I311
sg15
(I800
I111
tp1324
sg17
(I-48
I8
I-173
tp1325
sg19
g20
sg21
I281
sg22
(I33
I33
tp1326
sbsI282
(iniveau
NiveauAction
p1327
(dp1328
g10
I01
sg11
g26
sg13
I00
sg14
I312
sg15
(I800
I55
tp1329
sg17
g28
sg19
g20
sg21
I282
sg22
g29
sbsI283
(iniveau
NiveauAction
p1330
(dp1331
g10
I01
sg11
g35
sg13
I01
sg14
I312
sg15
(I800
I412
tp1332
sg17
(I-32
I19
I93
tp1333
sg19
g20
sg21
I283
sg22
(I64
I64
tp1334
sbsI284
(iniveau
NiveauAction
p1335
(dp1336
g10
I01
sg11
g12
sg13
I00
sg14
I314
sg15
(I800
I18
tp1337
sg17
(I-82
I-7
I-153
tp1338
sg19
g20
sg21
I284
sg22
(I51
I51
tp1339
sbsI285
(iniveau
NiveauAction
p1340
(dp1341
g10
I01
sg11
g12
sg13
I00
sg14
I315
sg15
(I800
I394
tp1342
sg17
(I-68
I-11
I-50
tp1343
sg19
g20
sg21
I285
sg22
(I84
I84
tp1344
sbsI286
(iniveau
NiveauAction
p1345
(dp1346
g10
I01
sg11
g12
sg13
I00
sg14
I316
sg15
(I800
I410
tp1347
sg17
(I-52
I13
I-133
tp1348
sg19
g20
sg21
I286
sg22
(I54
I54
tp1349
sbsI287
(iniveau
NiveauAction
p1350
(dp1351
g10
I01
sg11
g26
sg13
I00
sg14
I316
sg15
(I800
I119
tp1352
sg17
g28
sg19
g20
sg21
I287
sg22
g29
sbsI288
(iniveau
NiveauAction
p1353
(dp1354
g10
I01
sg11
g35
sg13
I01
sg14
I317
sg15
(I800
I402
tp1355
sg17
(I-45
I-13
I72
tp1356
sg19
g20
sg21
I288
sg22
(I63
I63
tp1357
sbsI289
(iniveau
NiveauAction
p1358
(dp1359
g10
I01
sg11
g26
sg13
I00
sg14
I318
sg15
(I800
I5
tp1360
sg17
g28
sg19
g20
sg21
I289
sg22
g29
sbsI290
(iniveau
NiveauAction
p1361
(dp1362
g10
I01
sg11
g12
sg13
I00
sg14
I320
sg15
(I800
I274
tp1363
sg17
(I-38
I20
I4
tp1364
sg19
g20
sg21
I290
sg22
(I67
I67
tp1365
sbsI291
(iniveau
NiveauAction
p1366
(dp1367
g10
I01
sg11
g35
sg13
I01
sg14
I321
sg15
(I800
I319
tp1368
sg17
(I-15
I0
I-151
tp1369
sg19
g20
sg21
I291
sg22
(I40
I40
tp1370
sbsI292
(iniveau
NiveauAction
p1371
(dp1372
g10
I01
sg11
g35
sg13
I01
sg14
I322
sg15
(I800
I208
tp1373
sg17
(I-11
I19
I-2
tp1374
sg19
g20
sg21
I292
sg22
(I54
I54
tp1375
sbsI293
(iniveau
NiveauAction
p1376
(dp1377
g10
I01
sg11
g12
sg13
I00
sg14
I323
sg15
(I800
I203
tp1378
sg17
(I-90
I24
I4
tp1379
sg19
g20
sg21
I293
sg22
(I70
I70
tp1380
sbsI294
(iniveau
NiveauAction
p1381
(dp1382
g10
I01
sg11
g12
sg13
I00
sg14
I323
sg15
(I800
I164
tp1383
sg17
(I-92
I13
I-29
tp1384
sg19
g20
sg21
I294
sg22
(I84
I84
tp1385
sbsI295
(iniveau
NiveauAction
p1386
(dp1387
g10
I01
sg11
g12
sg13
I00
sg14
I325
sg15
(I800
I17
tp1388
sg17
(I-45
I-29
I-1
tp1389
sg19
g20
sg21
I295
sg22
(I79
I79
tp1390
sbsI296
(iniveau
NiveauAction
p1391
(dp1392
g10
I01
sg11
g12
sg13
I00
sg14
I327
sg15
(I800
I72
tp1393
sg17
(I-73
I17
I-102
tp1394
sg19
g20
sg21
I296
sg22
(I86
I86
tp1395
sbsI297
(iniveau
NiveauAction
p1396
(dp1397
g10
I01
sg11
g35
sg13
I01
sg14
I328
sg15
(I800
I345
tp1398
sg17
(I-17
I18
I29
tp1399
sg19
g20
sg21
I297
sg22
(I31
I31
tp1400
sbsI298
(iniveau
NiveauAction
p1401
(dp1402
g10
I01
sg11
g26
sg13
I00
sg14
I329
sg15
(I800
I54
tp1403
sg17
g28
sg19
g20
sg21
I298
sg22
g29
sbsI299
(iniveau
NiveauAction
p1404
(dp1405
g10
I01
sg11
g12
sg13
I00
sg14
I329
sg15
(I800
I164
tp1406
sg17
(I-72
I-10
I-54
tp1407
sg19
g20
sg21
I299
sg22
(I72
I72
tp1408
sbsI300
(iniveau
NiveauAction
p1409
(dp1410
g10
I01
sg11
g26
sg13
I00
sg14
I331
sg15
(I800
I322
tp1411
sg17
g28
sg19
g20
sg21
I300
sg22
g29
sbsI301
(iniveau
NiveauAction
p1412
(dp1413
g10
I01
sg11
g35
sg13
I01
sg14
I333
sg15
(I800
I214
tp1414
sg17
(I-50
I-14
I-81
tp1415
sg19
g20
sg21
I301
sg22
(I63
I63
tp1416
sbsI302
(iniveau
NiveauAction
p1417
(dp1418
g10
I01
sg11
g12
sg13
I00
sg14
I334
sg15
(I800
I251
tp1419
sg17
(I-65
I20
I160
tp1420
sg19
g20
sg21
I302
sg22
(I56
I56
tp1421
sbsI303
(iniveau
NiveauAction
p1422
(dp1423
g10
I01
sg11
g12
sg13
I00
sg14
I334
sg15
(I800
I179
tp1424
sg17
(I-54
I-9
I-135
tp1425
sg19
g20
sg21
I303
sg22
(I77
I77
tp1426
sbsI304
(iniveau
NiveauAction
p1427
(dp1428
g10
I01
sg11
g12
sg13
I00
sg14
I335
sg15
(I800
I49
tp1429
sg17
(I-62
I-26
I28
tp1430
sg19
g20
sg21
I304
sg22
(I54
I54
tp1431
sbsI305
(iniveau
NiveauAction
p1432
(dp1433
g10
I01
sg11
g35
sg13
I01
sg14
I336
sg15
(I800
I65
tp1434
sg17
(I-29
I15
I-156
tp1435
sg19
g20
sg21
I305
sg22
(I31
I31
tp1436
sbsI306
(iniveau
NiveauAction
p1437
(dp1438
g10
I01
sg11
g35
sg13
I01
sg14
I337
sg15
(I800
I328
tp1439
sg17
(I-27
I18
I66
tp1440
sg19
g20
sg21
I306
sg22
(I32
I32
tp1441
sbsI307
(iniveau
NiveauAction
p1442
(dp1443
g10
I01
sg11
g35
sg13
I01
sg14
I337
sg15
(I800
I169
tp1444
sg17
(I-30
I15
I151
tp1445
sg19
g20
sg21
I307
sg22
(I70
I70
tp1446
sbsI308
(iniveau
NiveauAction
p1447
(dp1448
g10
I01
sg11
g35
sg13
I01
sg14
I338
sg15
(I800
I87
tp1449
sg17
(I-13
I2
I92
tp1450
sg19
g20
sg21
I308
sg22
(I51
I51
tp1451
sbsI309
(iniveau
NiveauAction
p1452
(dp1453
g10
I01
sg11
g35
sg13
I01
sg14
I339
sg15
(I800
I391
tp1454
sg17
(I-41
I-16
I103
tp1455
sg19
g20
sg21
I309
sg22
(I53
I53
tp1456
sbsI310
(iniveau
NiveauAction
p1457
(dp1458
g10
I01
sg11
g12
sg13
I00
sg14
I339
sg15
(I800
I373
tp1459
sg17
(I-97
I15
I-104
tp1460
sg19
g20
sg21
I310
sg22
(I56
I56
tp1461
sbsI311
(iniveau
NiveauAction
p1462
(dp1463
g10
I01
sg11
g12
sg13
I00
sg14
I339
sg15
(I800
I466
tp1464
sg17
(I-53
I27
I-70
tp1465
sg19
g20
sg21
I311
sg22
(I96
I96
tp1466
sbsI312
(iniveau
NiveauAction
p1467
(dp1468
g10
I01
sg11
g12
sg13
I00
sg14
I339
sg15
(I800
I81
tp1469
sg17
(I-65
I-3
I-16
tp1470
sg19
g20
sg21
I312
sg22
(I81
I81
tp1471
sbsI313
(iniveau
NiveauAction
p1472
(dp1473
g10
I01
sg11
g26
sg13
I00
sg14
I339
sg15
(I800
I450
tp1474
sg17
g28
sg19
g20
sg21
I313
sg22
g29
sbsI314
(iniveau
NiveauAction
p1475
(dp1476
g10
I01
sg11
g35
sg13
I01
sg14
I341
sg15
(I800
I277
tp1477
sg17
(I-41
I15
I135
tp1478
sg19
g20
sg21
I314
sg22
(I60
I60
tp1479
sbsI315
(iniveau
NiveauAction
p1480
(dp1481
g10
I01
sg11
g26
sg13
I00
sg14
I341
sg15
(I800
I348
tp1482
sg17
g28
sg19
g20
sg21
I315
sg22
g29
sbsI316
(iniveau
NiveauAction
p1483
(dp1484
g10
I01
sg11
g35
sg13
I01
sg14
I341
sg15
(I800
I9
tp1485
sg17
(I-44
I2
I108
tp1486
sg19
g20
sg21
I316
sg22
(I45
I45
tp1487
sbsI317
(iniveau
NiveauAction
p1488
(dp1489
g10
I01
sg11
g12
sg13
I00
sg14
I342
sg15
(I800
I223
tp1490
sg17
(I-59
I30
I-22
tp1491
sg19
g20
sg21
I317
sg22
(I60
I60
tp1492
sbsI318
(iniveau
NiveauAction
p1493
(dp1494
g10
I01
sg11
g12
sg13
I00
sg14
I345
sg15
(I800
I254
tp1495
sg17
(I-62
I2
I-128
tp1496
sg19
g20
sg21
I318
sg22
(I78
I78
tp1497
sbsI319
(iniveau
NiveauAction
p1498
(dp1499
g10
I01
sg11
g12
sg13
I00
sg14
I346
sg15
(I800
I146
tp1500
sg17
(I-45
I-26
I24
tp1501
sg19
g20
sg21
I319
sg22
(I72
I72
tp1502
sbsI320
(iniveau
NiveauAction
p1503
(dp1504
g10
I01
sg11
g12
sg13
I00
sg14
I346
sg15
(I800
I129
tp1505
sg17
(I-100
I22
I-12
tp1506
sg19
g20
sg21
I320
sg22
(I58
I58
tp1507
sbsI321
(iniveau
NiveauAction
p1508
(dp1509
g10
I01
sg11
g35
sg13
I01
sg14
I348
sg15
(I800
I430
tp1510
sg17
(I-15
I10
I-8
tp1511
sg19
g20
sg21
I321
sg22
(I62
I62
tp1512
sbsI322
(iniveau
NiveauAction
p1513
(dp1514
g10
I01
sg11
g35
sg13
I01
sg14
I350
sg15
(I800
I457
tp1515
sg17
(I-11
I-14
I104
tp1516
sg19
g20
sg21
I322
sg22
(I41
I41
tp1517
sbsI323
(iniveau
NiveauAction
p1518
(dp1519
g10
I01
sg11
g35
sg13
I01
sg14
I351
sg15
(I800
I133
tp1520
sg17
(I-22
I-6
I163
tp1521
sg19
g20
sg21
I323
sg22
(I55
I55
tp1522
sbsI324
(iniveau
NiveauAction
p1523
(dp1524
g10
I01
sg11
g35
sg13
I01
sg14
I353
sg15
(I800
I246
tp1525
sg17
(I-37
I19
I176
tp1526
sg19
g20
sg21
I324
sg22
(I48
I48
tp1527
sbsI325
(iniveau
NiveauAction
p1528
(dp1529
g10
I01
sg11
g12
sg13
I00
sg14
I353
sg15
(I800
I141
tp1530
sg17
(I-40
I3
I-13
tp1531
sg19
g20
sg21
I325
sg22
(I65
I65
tp1532
sbsI326
(iniveau
NiveauAction
p1533
(dp1534
g10
I01
sg11
g26
sg13
I00
sg14
I355
sg15
(I800
I363
tp1535
sg17
g28
sg19
g20
sg21
I326
sg22
g29
sbsI327
(iniveau
NiveauAction
p1536
(dp1537
g10
I01
sg11
g35
sg13
I01
sg14
I357
sg15
(I800
I241
tp1538
sg17
(I-42
I-13
I6
tp1539
sg19
g20
sg21
I327
sg22
(I43
I43
tp1540
sbsI328
(iniveau
NiveauAction
p1541
(dp1542
g10
I01
sg11
g35
sg13
I01
sg14
I359
sg15
(I800
I375
tp1543
sg17
(I-17
I-4
I-27
tp1544
sg19
g20
sg21
I328
sg22
(I47
I47
tp1545
sbsI329
(iniveau
NiveauAction
p1546
(dp1547
g10
I01
sg11
g35
sg13
I01
sg14
I360
sg15
(I800
I219
tp1548
sg17
(I-20
I-2
I177
tp1549
sg19
g20
sg21
I329
sg22
(I53
I53
tp1550
sbsI330
(iniveau
NiveauAction
p1551
(dp1552
g10
I01
sg11
g35
sg13
I01
sg14
I361
sg15
(I800
I104
tp1553
sg17
(I-35
I8
I30
tp1554
sg19
g20
sg21
I330
sg22
(I44
I44
tp1555
sbsI331
(iniveau
NiveauAction
p1556
(dp1557
g10
I01
sg11
g26
sg13
I00
sg14
I362
sg15
(I800
I415
tp1558
sg17
g28
sg19
g20
sg21
I331
sg22
g29
sbsI332
(iniveau
NiveauAction
p1559
(dp1560
g10
I01
sg11
g35
sg13
I01
sg14
I364
sg15
(I800
I55
tp1561
sg17
(I-49
I11
I-46
tp1562
sg19
g20
sg21
I332
sg22
(I65
I65
tp1563
sbsI333
(iniveau
NiveauAction
p1564
(dp1565
g10
I01
sg11
g35
sg13
I01
sg14
I364
sg15
(I800
I262
tp1566
sg17
(I-30
I20
I22
tp1567
sg19
g20
sg21
I333
sg22
(I69
I69
tp1568
sbsI334
(iniveau
NiveauAction
p1569
(dp1570
g10
I01
sg11
g12
sg13
I00
sg14
I365
sg15
(I800
I203
tp1571
sg17
(I-84
I-20
I-60
tp1572
sg19
g20
sg21
I334
sg22
(I70
I70
tp1573
sbsI335
(iniveau
NiveauAction
p1574
(dp1575
g10
I01
sg11
g35
sg13
I01
sg14
I366
sg15
(I800
I248
tp1576
sg17
(I-40
I4
I165
tp1577
sg19
g20
sg21
I335
sg22
(I68
I68
tp1578
sbsI336
(iniveau
NiveauAction
p1579
(dp1580
g10
I01
sg11
g35
sg13
I01
sg14
I368
sg15
(I800
I463
tp1581
sg17
(I-21
I17
I-103
tp1582
sg19
g20
sg21
I336
sg22
(I58
I58
tp1583
sbsI337
(iniveau
NiveauAction
p1584
(dp1585
g10
I01
sg11
g35
sg13
I01
sg14
I368
sg15
(I800
I338
tp1586
sg17
(I-33
I-3
I-102
tp1587
sg19
g20
sg21
I337
sg22
(I48
I48
tp1588
sbsI338
(iniveau
NiveauAction
p1589
(dp1590
g10
I01
sg11
g35
sg13
I01
sg14
I368
sg15
(I800
I378
tp1591
sg17
(I-33
I-10
I-123
tp1592
sg19
g20
sg21
I338
sg22
(I56
I56
tp1593
sbsI339
(iniveau
NiveauAction
p1594
(dp1595
g10
I01
sg11
g35
sg13
I01
sg14
I370
sg15
(I800
I32
tp1596
sg17
(I-10
I18
I-95
tp1597
sg19
g20
sg21
I339
sg22
(I45
I45
tp1598
sbsI340
(iniveau
NiveauAction
p1599
(dp1600
g10
I01
sg11
g12
sg13
I00
sg14
I372
sg15
(I800
I0
tp1601
sg17
(I-89
I8
I30
tp1602
sg19
g20
sg21
I340
sg22
(I60
I60
tp1603
sbsI341
(iniveau
NiveauAction
p1604
(dp1605
g10
I01
sg11
g35
sg13
I01
sg14
I373
sg15
(I800
I49
tp1606
sg17
(I-30
I3
I165
tp1607
sg19
g20
sg21
I341
sg22
(I69
I69
tp1608
sbsI342
(iniveau
NiveauAction
p1609
(dp1610
g10
I01
sg11
g35
sg13
I01
sg14
I374
sg15
(I800
I325
tp1611
sg17
(I-19
I-4
I-124
tp1612
sg19
g20
sg21
I342
sg22
(I42
I42
tp1613
sbsI343
(iniveau
NiveauAction
p1614
(dp1615
g10
I01
sg11
g35
sg13
I01
sg14
I375
sg15
(I800
I37
tp1616
sg17
(I-50
I-3
I87
tp1617
sg19
g20
sg21
I343
sg22
(I57
I57
tp1618
sbsI344
(iniveau
NiveauAction
p1619
(dp1620
g10
I01
sg11
g35
sg13
I01
sg14
I376
sg15
(I800
I57
tp1621
sg17
(I-15
I-15
I-7
tp1622
sg19
g20
sg21
I344
sg22
(I58
I58
tp1623
sbsI345
(iniveau
NiveauAction
p1624
(dp1625
g10
I01
sg11
g26
sg13
I00
sg14
I376
sg15
(I800
I493
tp1626
sg17
g28
sg19
g20
sg21
I345
sg22
g29
sbsI346
(iniveau
NiveauAction
p1627
(dp1628
g10
I01
sg11
g35
sg13
I01
sg14
I377
sg15
(I800
I481
tp1629
sg17
(I-50
I-6
I130
tp1630
sg19
g20
sg21
I346
sg22
(I47
I47
tp1631
sbsI347
(iniveau
NiveauAction
p1632
(dp1633
g10
I01
sg11
g35
sg13
I01
sg14
I379
sg15
(I800
I317
tp1634
sg17
(I-39
I8
I127
tp1635
sg19
g20
sg21
I347
sg22
(I36
I36
tp1636
sbsI348
(iniveau
NiveauAction
p1637
(dp1638
g10
I01
sg11
g12
sg13
I00
sg14
I380
sg15
(I800
I209
tp1639
sg17
(I-81
I-12
I52
tp1640
sg19
g20
sg21
I348
sg22
(I83
I83
tp1641
sbsI349
(iniveau
NiveauAction
p1642
(dp1643
g10
I01
sg11
g35
sg13
I01
sg14
I380
sg15
(I800
I472
tp1644
sg17
(I-48
I0
I29
tp1645
sg19
g20
sg21
I349
sg22
(I34
I34
tp1646
sbsI350
(iniveau
NiveauAction
p1647
(dp1648
g10
I01
sg11
g26
sg13
I00
sg14
I381
sg15
(I800
I287
tp1649
sg17
g28
sg19
g20
sg21
I350
sg22
g29
sbsI351
(iniveau
NiveauAction
p1650
(dp1651
g10
I01
sg11
g35
sg13
I01
sg14
I383
sg15
(I800
I424
tp1652
sg17
(I-28
I-5
I-78
tp1653
sg19
g20
sg21
I351
sg22
(I61
I61
tp1654
sbsI352
(iniveau
NiveauAction
p1655
(dp1656
g10
I01
sg11
g12
sg13
I00
sg14
I385
sg15
(I800
I75
tp1657
sg17
(I-71
I8
I60
tp1658
sg19
g20
sg21
I352
sg22
(I65
I65
tp1659
sbsI353
(iniveau
NiveauAction
p1660
(dp1661
g10
I01
sg11
g26
sg13
I00
sg14
I387
sg15
(I800
I92
tp1662
sg17
g28
sg19
g20
sg21
I353
sg22
g29
sbsI354
(iniveau
NiveauAction
p1663
(dp1664
g10
I01
sg11
g12
sg13
I00
sg14
I389
sg15
(I800
I411
tp1665
sg17
(I-68
I0
I-37
tp1666
sg19
g20
sg21
I354
sg22
(I53
I53
tp1667
sbsI355
(iniveau
NiveauAction
p1668
(dp1669
g10
I01
sg11
g12
sg13
I00
sg14
I391
sg15
(I800
I284
tp1670
sg17
(I-67
I18
I140
tp1671
sg19
g20
sg21
I355
sg22
(I65
I65
tp1672
sbsI356
(iniveau
NiveauAction
p1673
(dp1674
g10
I01
sg11
g12
sg13
I00
sg14
I391
sg15
(I800
I224
tp1675
sg17
(I-83
I20
I-146
tp1676
sg19
g20
sg21
I356
sg22
(I51
I51
tp1677
sbsI357
(iniveau
NiveauAction
p1678
(dp1679
g10
I01
sg11
g12
sg13
I00
sg14
I393
sg15
(I800
I198
tp1680
sg17
(I-43
I-28
I109
tp1681
sg19
g20
sg21
I357
sg22
(I60
I60
tp1682
sbsI358
(iniveau
NiveauAction
p1683
(dp1684
g10
I01
sg11
g12
sg13
I00
sg14
I394
sg15
(I800
I294
tp1685
sg17
(I-32
I9
I55
tp1686
sg19
g20
sg21
I358
sg22
(I54
I54
tp1687
sbsI359
(iniveau
NiveauAction
p1688
(dp1689
g10
I01
sg11
g35
sg13
I01
sg14
I394
sg15
(I800
I39
tp1690
sg17
(I-20
I-10
I-84
tp1691
sg19
g20
sg21
I359
sg22
(I61
I61
tp1692
sbsI360
(iniveau
NiveauAction
p1693
(dp1694
g10
I01
sg11
g35
sg13
I01
sg14
I395
sg15
(I800
I499
tp1695
sg17
(I-12
I15
I27
tp1696
sg19
g20
sg21
I360
sg22
(I51
I51
tp1697
sbsI361
(iniveau
NiveauAction
p1698
(dp1699
g10
I01
sg11
g35
sg13
I01
sg14
I396
sg15
(I800
I268
tp1700
sg17
(I-39
I0
I94
tp1701
sg19
g20
sg21
I361
sg22
(I42
I42
tp1702
sbsI362
(iniveau
NiveauAction
p1703
(dp1704
g10
I01
sg11
g35
sg13
I01
sg14
I397
sg15
(I800
I387
tp1705
sg17
(I-37
I14
I-120
tp1706
sg19
g20
sg21
I362
sg22
(I49
I49
tp1707
sbsI363
(iniveau
NiveauAction
p1708
(dp1709
g10
I01
sg11
g35
sg13
I01
sg14
I399
sg15
(I800
I317
tp1710
sg17
(I-44
I-9
I-41
tp1711
sg19
g20
sg21
I363
sg22
(I63
I63
tp1712
sbsI364
(iniveau
NiveauAction
p1713
(dp1714
g10
I01
sg11
g35
sg13
I01
sg14
I399
sg15
(I800
I328
tp1715
sg17
(I-44
I7
I162
tp1716
sg19
g20
sg21
I364
sg22
(I47
I47
tp1717
sbsI365
(iniveau
NiveauAction
p1718
(dp1719
g10
I01
sg11
g12
sg13
I00
sg14
I400
sg15
(I800
I56
tp1720
sg17
(I-97
I-30
I98
tp1721
sg19
g20
sg21
I365
sg22
(I52
I52
tp1722
sbsI366
(iniveau
NiveauAction
p1723
(dp1724
g10
I01
sg11
g12
sg13
I00
sg14
I400
sg15
(I800
I406
tp1725
sg17
(I-64
I24
I35
tp1726
sg19
g20
sg21
I366
sg22
(I67
I67
tp1727
sbsI367
(iniveau
NiveauAction
p1728
(dp1729
g10
I01
sg11
g35
sg13
I01
sg14
I401
sg15
(I800
I293
tp1730
sg17
(I-39
I14
I118
tp1731
sg19
g20
sg21
I367
sg22
(I62
I62
tp1732
sbsI368
(iniveau
NiveauAction
p1733
(dp1734
g10
I01
sg11
g35
sg13
I01
sg14
I401
sg15
(I800
I239
tp1735
sg17
(I-26
I-7
I80
tp1736
sg19
g20
sg21
I368
sg22
(I35
I35
tp1737
sbsI369
(iniveau
NiveauAction
p1738
(dp1739
g10
I01
sg11
g35
sg13
I01
sg14
I401
sg15
(I800
I323
tp1740
sg17
(I-39
I20
I13
tp1741
sg19
g20
sg21
I369
sg22
(I32
I32
tp1742
sbsI370
(iniveau
NiveauAction
p1743
(dp1744
g10
I01
sg11
g12
sg13
I00
sg14
I403
sg15
(I800
I70
tp1745
sg17
(I-84
I16
I-81
tp1746
sg19
g20
sg21
I370
sg22
(I79
I79
tp1747
sbsI371
(iniveau
NiveauAction
p1748
(dp1749
g10
I01
sg11
g12
sg13
I00
sg14
I403
sg15
(I800
I48
tp1750
sg17
(I-37
I-21
I127
tp1751
sg19
g20
sg21
I371
sg22
(I74
I74
tp1752
sbsI372
(iniveau
NiveauAction
p1753
(dp1754
g10
I01
sg11
g35
sg13
I01
sg14
I404
sg15
(I800
I278
tp1755
sg17
(I-36
I-7
I61
tp1756
sg19
g20
sg21
I372
sg22
(I55
I55
tp1757
sbsI373
(iniveau
NiveauAction
p1758
(dp1759
g10
I01
sg11
g35
sg13
I01
sg14
I404
sg15
(I800
I141
tp1760
sg17
(I-32
I3
I69
tp1761
sg19
g20
sg21
I373
sg22
(I46
I46
tp1762
sbsI374
(iniveau
NiveauAction
p1763
(dp1764
g10
I01
sg11
g26
sg13
I00
sg14
I404
sg15
(I800
I108
tp1765
sg17
g28
sg19
g20
sg21
I374
sg22
g29
sbsI375
(iniveau
NiveauAction
p1766
(dp1767
g10
I01
sg11
g35
sg13
I01
sg14
I406
sg15
(I800
I284
tp1768
sg17
(I-38
I16
I-69
tp1769
sg19
g20
sg21
I375
sg22
(I42
I42
tp1770
sbsI376
(iniveau
NiveauAction
p1771
(dp1772
g10
I01
sg11
g26
sg13
I00
sg14
I406
sg15
(I800
I370
tp1773
sg17
g28
sg19
g20
sg21
I376
sg22
g29
sbsI377
(iniveau
NiveauAction
p1774
(dp1775
g10
I01
sg11
g26
sg13
I00
sg14
I408
sg15
(I800
I159
tp1776
sg17
g28
sg19
g20
sg21
I377
sg22
g29
sbsI378
(iniveau
NiveauAction
p1777
(dp1778
g10
I01
sg11
g35
sg13
I01
sg14
I410
sg15
(I800
I425
tp1779
sg17
(I-44
I-7
I142
tp1780
sg19
g20
sg21
I378
sg22
(I46
I46
tp1781
sbsI379
(iniveau
NiveauAction
p1782
(dp1783
g10
I01
sg11
g35
sg13
I01
sg14
I411
sg15
(I800
I265
tp1784
sg17
(I-32
I-6
I-145
tp1785
sg19
g20
sg21
I379
sg22
(I48
I48
tp1786
sbsI380
(iniveau
NiveauAction
p1787
(dp1788
g10
I01
sg11
g35
sg13
I01
sg14
I412
sg15
(I800
I372
tp1789
sg17
(I-19
I-16
I-173
tp1790
sg19
g20
sg21
I380
sg22
(I36
I36
tp1791
sbsI381
(iniveau
NiveauAction
p1792
(dp1793
g10
I01
sg11
g12
sg13
I00
sg14
I413
sg15
(I800
I482
tp1794
sg17
(I-90
I-18
I127
tp1795
sg19
g20
sg21
I381
sg22
(I55
I55
tp1796
sbsI382
(iniveau
NiveauAction
p1797
(dp1798
g10
I01
sg11
g12
sg13
I00
sg14
I414
sg15
(I800
I393
tp1799
sg17
(I-75
I6
I-151
tp1800
sg19
g20
sg21
I382
sg22
(I84
I84
tp1801
sbsI383
(iniveau
NiveauAction
p1802
(dp1803
g10
I01
sg11
g12
sg13
I00
sg14
I414
sg15
(I800
I115
tp1804
sg17
(I-85
I7
I161
tp1805
sg19
g20
sg21
I383
sg22
(I76
I76
tp1806
sbsI384
(iniveau
NiveauAction
p1807
(dp1808
g10
I01
sg11
g12
sg13
I00
sg14
I415
sg15
(I800
I413
tp1809
sg17
(I-45
I30
I-104
tp1810
sg19
g20
sg21
I384
sg22
(I73
I73
tp1811
sbsI385
(iniveau
NiveauAction
p1812
(dp1813
g10
I01
sg11
g12
sg13
I00
sg14
I417
sg15
(I800
I454
tp1814
sg17
(I-79
I-5
I-162
tp1815
sg19
g20
sg21
I385
sg22
(I90
I90
tp1816
sbsI386
(iniveau
NiveauAction
p1817
(dp1818
g10
I01
sg11
g35
sg13
I01
sg14
I419
sg15
(I800
I478
tp1819
sg17
(I-18
I-18
I-27
tp1820
sg19
g20
sg21
I386
sg22
(I60
I60
tp1821
sbsI387
(iniveau
NiveauAction
p1822
(dp1823
g10
I01
sg11
g12
sg13
I00
sg14
I419
sg15
(I800
I188
tp1824
sg17
(I-56
I8
I25
tp1825
sg19
g20
sg21
I387
sg22
(I60
I60
tp1826
sbsI388
(iniveau
NiveauAction
p1827
(dp1828
g10
I01
sg11
g35
sg13
I01
sg14
I420
sg15
(I800
I112
tp1829
sg17
(I-29
I7
I-31
tp1830
sg19
g20
sg21
I388
sg22
(I34
I34
tp1831
sbsI389
(iniveau
NiveauAction
p1832
(dp1833
g10
I01
sg11
g35
sg13
I01
sg14
I421
sg15
(I800
I306
tp1834
sg17
(I-45
I7
I65
tp1835
sg19
g20
sg21
I389
sg22
(I36
I36
tp1836
sbsI390
(iniveau
NiveauAction
p1837
(dp1838
g10
I01
sg11
g12
sg13
I00
sg14
I421
sg15
(I800
I185
tp1839
sg17
(I-75
I-19
I-27
tp1840
sg19
g20
sg21
I390
sg22
(I71
I71
tp1841
sbsI391
(iniveau
NiveauAction
p1842
(dp1843
g10
I01
sg11
g26
sg13
I00
sg14
I422
sg15
(I800
I230
tp1844
sg17
g28
sg19
g20
sg21
I391
sg22
g29
sbsI392
(iniveau
NiveauAction
p1845
(dp1846
g10
I01
sg11
g35
sg13
I01
sg14
I424
sg15
(I800
I471
tp1847
sg17
(I-18
I13
I-169
tp1848
sg19
g20
sg21
I392
sg22
(I30
I30
tp1849
sbsI393
(iniveau
NiveauAction
p1850
(dp1851
g10
I01
sg11
g12
sg13
I00
sg14
I425
sg15
(I800
I119
tp1852
sg17
(I-34
I-27
I135
tp1853
sg19
g20
sg21
I393
sg22
(I79
I79
tp1854
sbsI394
(iniveau
NiveauAction
p1855
(dp1856
g10
I01
sg11
g12
sg13
I00
sg14
I426
sg15
(I800
I102
tp1857
sg17
(I-64
I-1
I97
tp1858
sg19
g20
sg21
I394
sg22
(I97
I97
tp1859
sbsI395
(iniveau
NiveauAction
p1860
(dp1861
g10
I01
sg11
g35
sg13
I01
sg14
I428
sg15
(I800
I410
tp1862
sg17
(I-35
I-15
I-30
tp1863
sg19
g20
sg21
I395
sg22
(I56
I56
tp1864
sbsI396
(iniveau
NiveauAction
p1865
(dp1866
g10
I01
sg11
g12
sg13
I00
sg14
I429
sg15
(I800
I357
tp1867
sg17
(I-98
I17
I1
tp1868
sg19
g20
sg21
I396
sg22
(I80
I80
tp1869
sbsI397
(iniveau
NiveauAction
p1870
(dp1871
g10
I01
sg11
g12
sg13
I00
sg14
I431
sg15
(I800
I111
tp1872
sg17
(I-53
I10
I111
tp1873
sg19
g20
sg21
I397
sg22
(I66
I66
tp1874
sbsI398
(iniveau
NiveauAction
p1875
(dp1876
g10
I01
sg11
g35
sg13
I01
sg14
I432
sg15
(I800
I413
tp1877
sg17
(I-41
I20
I-145
tp1878
sg19
g20
sg21
I398
sg22
(I57
I57
tp1879
sbsI399
(iniveau
NiveauAction
p1880
(dp1881
g10
I01
sg11
g12
sg13
I00
sg14
I434
sg15
(I800
I335
tp1882
sg17
(I-73
I1
I-121
tp1883
sg19
g20
sg21
I399
sg22
(I56
I56
tp1884
sbsI400
(iniveau
NiveauAction
p1885
(dp1886
g10
I01
sg11
g35
sg13
I01
sg14
I436
sg15
(I800
I132
tp1887
sg17
(I-35
I9
I-116
tp1888
sg19
g20
sg21
I400
sg22
(I63
I63
tp1889
sbsI401
(iniveau
NiveauAction
p1890
(dp1891
g10
I01
sg11
g26
sg13
I00
sg14
I437
sg15
(I800
I223
tp1892
sg17
g28
sg19
g20
sg21
I401
sg22
g29
sbsI402
(iniveau
NiveauAction
p1893
(dp1894
g10
I01
sg11
g26
sg13
I00
sg14
I437
sg15
(I800
I132
tp1895
sg17
g28
sg19
g20
sg21
I402
sg22
g29
sbsI403
(iniveau
NiveauAction
p1896
(dp1897
g10
I01
sg11
g35
sg13
I01
sg14
I438
sg15
(I800
I63
tp1898
sg17
(I-27
I-2
I128
tp1899
sg19
g20
sg21
I403
sg22
(I49
I49
tp1900
sbsI404
(iniveau
NiveauAction
p1901
(dp1902
g10
I01
sg11
g12
sg13
I00
sg14
I439
sg15
(I800
I319
tp1903
sg17
(I-68
I-5
I-44
tp1904
sg19
g20
sg21
I404
sg22
(I94
I94
tp1905
sbsI405
(iniveau
NiveauAction
p1906
(dp1907
g10
I01
sg11
g12
sg13
I00
sg14
I439
sg15
(I800
I110
tp1908
sg17
(I-57
I20
I179
tp1909
sg19
g20
sg21
I405
sg22
(I85
I85
tp1910
sbsI406
(iniveau
NiveauAction
p1911
(dp1912
g10
I01
sg11
g12
sg13
I00
sg14
I440
sg15
(I800
I317
tp1913
sg17
(I-44
I-14
I-160
tp1914
sg19
g20
sg21
I406
sg22
(I100
I100
tp1915
sbsI407
(iniveau
NiveauAction
p1916
(dp1917
g10
I01
sg11
g35
sg13
I01
sg14
I440
sg15
(I800
I446
tp1918
sg17
(I-37
I-20
I-116
tp1919
sg19
g20
sg21
I407
sg22
(I67
I67
tp1920
sbsI408
(iniveau
NiveauAction
p1921
(dp1922
g10
I01
sg11
g12
sg13
I00
sg14
I442
sg15
(I800
I434
tp1923
sg17
(I-55
I21
I-103
tp1924
sg19
g20
sg21
I408
sg22
(I71
I71
tp1925
sbsI409
(iniveau
NiveauAction
p1926
(dp1927
g10
I01
sg11
g12
sg13
I00
sg14
I443
sg15
(I800
I158
tp1928
sg17
(I-86
I2
I-164
tp1929
sg19
g20
sg21
I409
sg22
(I76
I76
tp1930
sbsI410
(iniveau
NiveauAction
p1931
(dp1932
g10
I01
sg11
g35
sg13
I01
sg14
I443
sg15
(I800
I17
tp1933
sg17
(I-47
I-19
I15
tp1934
sg19
g20
sg21
I410
sg22
(I30
I30
tp1935
sbsI411
(iniveau
NiveauAction
p1936
(dp1937
g10
I01
sg11
g35
sg13
I01
sg14
I444
sg15
(I800
I445
tp1938
sg17
(I-17
I4
I147
tp1939
sg19
g20
sg21
I411
sg22
(I40
I40
tp1940
sbsI412
(iniveau
NiveauAction
p1941
(dp1942
g10
I01
sg11
g26
sg13
I00
sg14
I446
sg15
(I800
I298
tp1943
sg17
g28
sg19
g20
sg21
I412
sg22
g29
sbsI413
(iniveau
NiveauAction
p1944
(dp1945
g10
I01
sg11
g12
sg13
I00
sg14
I448
sg15
(I800
I429
tp1946
sg17
(I-37
I12
I6
tp1947
sg19
g20
sg21
I413
sg22
(I53
I53
tp1948
sbsI414
(iniveau
NiveauAction
p1949
(dp1950
g10
I01
sg11
g35
sg13
I01
sg14
I449
sg15
(I800
I87
tp1951
sg17
(I-32
I-8
I-128
tp1952
sg19
g20
sg21
I414
sg22
(I39
I39
tp1953
sbsI415
(iniveau
NiveauAction
p1954
(dp1955
g10
I01
sg11
g12
sg13
I00
sg14
I450
sg15
(I800
I21
tp1956
sg17
(I-36
I-24
I-42
tp1957
sg19
g20
sg21
I415
sg22
(I97
I97
tp1958
sbsI416
(iniveau
NiveauAction
p1959
(dp1960
g10
I01
sg11
g35
sg13
I01
sg14
I450
sg15
(I800
I119
tp1961
sg17
(I-36
I11
I-108
tp1962
sg19
g20
sg21
I416
sg22
(I40
I40
tp1963
sbsI417
(iniveau
NiveauAction
p1964
(dp1965
g10
I01
sg11
g12
sg13
I00
sg14
I451
sg15
(I800
I282
tp1966
sg17
(I-45
I14
I95
tp1967
sg19
g20
sg21
I417
sg22
(I54
I54
tp1968
sbsI418
(iniveau
NiveauAction
p1969
(dp1970
g10
I01
sg11
g35
sg13
I01
sg14
I453
sg15
(I800
I493
tp1971
sg17
(I-30
I20
I36
tp1972
sg19
g20
sg21
I418
sg22
(I30
I30
tp1973
sbsI419
(iniveau
NiveauAction
p1974
(dp1975
g10
I01
sg11
g12
sg13
I00
sg14
I455
sg15
(I800
I437
tp1976
sg17
(I-99
I12
I160
tp1977
sg19
g20
sg21
I419
sg22
(I92
I92
tp1978
sbsI420
(iniveau
NiveauAction
p1979
(dp1980
g10
I01
sg11
g35
sg13
I01
sg14
I457
sg15
(I800
I387
tp1981
sg17
(I-39
I0
I20
tp1982
sg19
g20
sg21
I420
sg22
(I35
I35
tp1983
sbsI421
(iniveau
NiveauAction
p1984
(dp1985
g10
I01
sg11
g26
sg13
I00
sg14
I459
sg15
(I800
I231
tp1986
sg17
g28
sg19
g20
sg21
I421
sg22
g29
sbsI422
(iniveau
NiveauAction
p1987
(dp1988
g10
I01
sg11
g12
sg13
I00
sg14
I462
sg15
(I800
I397
tp1989
sg17
(I-91
I18
I-166
tp1990
sg19
g20
sg21
I422
sg22
(I79
I79
tp1991
sbsI423
(iniveau
NiveauAction
p1992
(dp1993
g10
I01
sg11
g35
sg13
I01
sg14
I463
sg15
(I800
I480
tp1994
sg17
(I-20
I2
I69
tp1995
sg19
g20
sg21
I423
sg22
(I44
I44
tp1996
sbsI424
(iniveau
NiveauAction
p1997
(dp1998
g10
I01
sg11
g12
sg13
I00
sg14
I464
sg15
(I800
I464
tp1999
sg17
(I-47
I-24
I-21
tp2000
sg19
g20
sg21
I424
sg22
(I84
I84
tp2001
sbsI425
(iniveau
NiveauAction
p2002
(dp2003
g10
I01
sg11
g35
sg13
I01
sg14
I465
sg15
(I800
I270
tp2004
sg17
(I-18
I-2
I10
tp2005
sg19
g20
sg21
I425
sg22
(I54
I54
tp2006
sbsI426
(iniveau
NiveauAction
p2007
(dp2008
g10
I01
sg11
g12
sg13
I00
sg14
I465
sg15
(I800
I333
tp2009
sg17
(I-46
I-1
I98
tp2010
sg19
g20
sg21
I426
sg22
(I95
I95
tp2011
sbsI427
(iniveau
NiveauAction
p2012
(dp2013
g10
I01
sg11
g35
sg13
I01
sg14
I465
sg15
(I800
I118
tp2014
sg17
(I-44
I7
I-97
tp2015
sg19
g20
sg21
I427
sg22
(I41
I41
tp2016
sbsI428
(iniveau
NiveauAction
p2017
(dp2018
g10
I01
sg11
g12
sg13
I00
sg14
I466
sg15
(I800
I230
tp2019
sg17
(I-30
I-25
I29
tp2020
sg19
g20
sg21
I428
sg22
(I61
I61
tp2021
sbsI429
(iniveau
NiveauAction
p2022
(dp2023
g10
I01
sg11
g26
sg13
I00
sg14
I469
sg15
(I800
I49
tp2024
sg17
g28
sg19
g20
sg21
I429
sg22
g29
sbsI430
(iniveau
NiveauAction
p2025
(dp2026
g10
I01
sg11
g12
sg13
I00
sg14
I470
sg15
(I800
I197
tp2027
sg17
(I-81
I10
I-128
tp2028
sg19
g20
sg21
I430
sg22
(I90
I90
tp2029
sbsI431
(iniveau
NiveauAction
p2030
(dp2031
g10
I01
sg11
g26
sg13
I00
sg14
I472
sg15
(I800
I408
tp2032
sg17
g28
sg19
g20
sg21
I431
sg22
g29
sbsI432
(iniveau
NiveauAction
p2033
(dp2034
g10
I01
sg11
g35
sg13
I01
sg14
I473
sg15
(I800
I411
tp2035
sg17
(I-34
I-4
I-94
tp2036
sg19
g20
sg21
I432
sg22
(I32
I32
tp2037
sbsI433
(iniveau
NiveauAction
p2038
(dp2039
g10
I01
sg11
g12
sg13
I00
sg14
I475
sg15
(I800
I417
tp2040
sg17
(I-48
I-17
I33
tp2041
sg19
g20
sg21
I433
sg22
(I94
I94
tp2042
sbsI434
(iniveau
NiveauAction
p2043
(dp2044
g10
I01
sg11
g35
sg13
I01
sg14
I477
sg15
(I800
I66
tp2045
sg17
(I-36
I19
I74
tp2046
sg19
g20
sg21
I434
sg22
(I67
I67
tp2047
sbsI435
(iniveau
NiveauAction
p2048
(dp2049
g10
I01
sg11
g12
sg13
I00
sg14
I478
sg15
(I800
I432
tp2050
sg17
(I-88
I-23
I-111
tp2051
sg19
g20
sg21
I435
sg22
(I80
I80
tp2052
sbsI436
(iniveau
NiveauAction
p2053
(dp2054
g10
I01
sg11
g12
sg13
I00
sg14
I479
sg15
(I800
I396
tp2055
sg17
(I-85
I9
I8
tp2056
sg19
g20
sg21
I436
sg22
(I62
I62
tp2057
sbsI437
(iniveau
NiveauAction
p2058
(dp2059
g10
I01
sg11
g35
sg13
I01
sg14
I479
sg15
(I800
I106
tp2060
sg17
(I-11
I20
I-78
tp2061
sg19
g20
sg21
I437
sg22
(I67
I67
tp2062
sbsI438
(iniveau
NiveauAction
p2063
(dp2064
g10
I01
sg11
g26
sg13
I00
sg14
I481
sg15
(I800
I221
tp2065
sg17
g28
sg19
g20
sg21
I438
sg22
g29
sbsI439
(iniveau
NiveauAction
p2066
(dp2067
g10
I01
sg11
g26
sg13
I00
sg14
I482
sg15
(I800
I430
tp2068
sg17
g28
sg19
g20
sg21
I439
sg22
g29
sbsI440
(iniveau
NiveauAction
p2069
(dp2070
g10
I01
sg11
g12
sg13
I00
sg14
I484
sg15
(I800
I378
tp2071
sg17
(I-61
I-13
I10
tp2072
sg19
g20
sg21
I440
sg22
(I77
I77
tp2073
sbsI441
(iniveau
NiveauAction
p2074
(dp2075
g10
I01
sg11
g35
sg13
I01
sg14
I486
sg15
(I800
I134
tp2076
sg17
(I-16
I-6
I172
tp2077
sg19
g20
sg21
I441
sg22
(I44
I44
tp2078
sbsI442
(iniveau
NiveauAction
p2079
(dp2080
g10
I01
sg11
g26
sg13
I00
sg14
I486
sg15
(I800
I454
tp2081
sg17
g28
sg19
g20
sg21
I442
sg22
g29
sbsI443
(iniveau
NiveauAction
p2082
(dp2083
g10
I01
sg11
g26
sg13
I00
sg14
I487
sg15
(I800
I95
tp2084
sg17
g28
sg19
g20
sg21
I443
sg22
g29
sbsI444
(iniveau
NiveauAction
p2085
(dp2086
g10
I01
sg11
g26
sg13
I00
sg14
I489
sg15
(I800
I14
tp2087
sg17
g28
sg19
g20
sg21
I444
sg22
g29
sbsI445
(iniveau
NiveauAction
p2088
(dp2089
g10
I01
sg11
g12
sg13
I00
sg14
I489
sg15
(I800
I388
tp2090
sg17
(I-62
I29
I-100
tp2091
sg19
g20
sg21
I445
sg22
(I79
I79
tp2092
sbsI446
(iniveau
NiveauAction
p2093
(dp2094
g10
I01
sg11
g35
sg13
I01
sg14
I489
sg15
(I800
I335
tp2095
sg17
(I-41
I-16
I43
tp2096
sg19
g20
sg21
I446
sg22
(I39
I39
tp2097
sbsI447
(iniveau
NiveauAction
p2098
(dp2099
g10
I01
sg11
g12
sg13
I00
sg14
I491
sg15
(I800
I226
tp2100
sg17
(I-44
I-17
I125
tp2101
sg19
g20
sg21
I447
sg22
(I54
I54
tp2102
sbsI448
(iniveau
NiveauAction
p2103
(dp2104
g10
I01
sg11
g12
sg13
I00
sg14
I493
sg15
(I800
I330
tp2105
sg17
(I-76
I-23
I-172
tp2106
sg19
g20
sg21
I448
sg22
(I85
I85
tp2107
sbsI449
(iniveau
NiveauAction
p2108
(dp2109
g10
I01
sg11
g26
sg13
I00
sg14
I495
sg15
(I800
I99
tp2110
sg17
g28
sg19
g20
sg21
I449
sg22
g29
sbsI450
(iniveau
NiveauAction
p2111
(dp2112
g10
I01
sg11
g12
sg13
I00
sg14
I496
sg15
(I800
I348
tp2113
sg17
(I-50
I-18
I77
tp2114
sg19
g20
sg21
I450
sg22
(I95
I95
tp2115
sbsI451
(iniveau
NiveauAction
p2116
(dp2117
g10
I01
sg11
g35
sg13
I01
sg14
I497
sg15
(I800
I153
tp2118
sg17
(I-22
I5
I-171
tp2119
sg19
g20
sg21
I451
sg22
(I68
I68
tp2120
sbsI452
(iniveau
NiveauAction
p2121
(dp2122
g10
I01
sg11
g12
sg13
I00
sg14
I497
sg15
(I800
I321
tp2123
sg17
(I-98
I12
I-103
tp2124
sg19
g20
sg21
I452
sg22
(I81
I81
tp2125
sbsI453
(iniveau
NiveauAction
p2126
(dp2127
g10
I01
sg11
g35
sg13
I01
sg14
I498
sg15
(I800
I296
tp2128
sg17
(I-13
I8
I-68
tp2129
sg19
g20
sg21
I453
sg22
(I53
I53
tp2130
sbsI454
(iniveau
NiveauAction
p2131
(dp2132
g10
I01
sg11
g12
sg13
I00
sg14
I499
sg15
(I800
I211
tp2133
sg17
(I-72
I-4
I-140
tp2134
sg19
g20
sg21
I454
sg22
(I54
I54
tp2135
sbsI455
(iniveau
NiveauAction
p2136
(dp2137
g10
I01
sg11
g12
sg13
I00
sg14
I499
sg15
(I800
I264
tp2138
sg17
(I-64
I-10
I21
tp2139
sg19
g20
sg21
I455
sg22
(I50
I50
tp2140
sbsI456
(iniveau
NiveauAction
p2141
(dp2142
g10
I01
sg11
g35
sg13
I01
sg14
I500
sg15
(I800
I151
tp2143
sg17
(I-15
I-8
I138
tp2144
sg19
g20
sg21
I456
sg22
(I67
I67
tp2145
sbsI457
(iniveau
NiveauAction
p2146
(dp2147
g10
I01
sg11
g26
sg13
I00
sg14
I501
sg15
(I800
I376
tp2148
sg17
g28
sg19
g20
sg21
I457
sg22
g29
sbsI458
(iniveau
NiveauAction
p2149
(dp2150
g10
I01
sg11
g12
sg13
I00
sg14
I502
sg15
(I800
I116
tp2151
sg17
(I-64
I26
I60
tp2152
sg19
g20
sg21
I458
sg22
(I50
I50
tp2153
sbsI459
(iniveau
NiveauAction
p2154
(dp2155
g10
I01
sg11
g12
sg13
I00
sg14
I503
sg15
(I800
I57
tp2156
sg17
(I-78
I23
I-50
tp2157
sg19
g20
sg21
I459
sg22
(I53
I53
tp2158
sbsI460
(iniveau
NiveauAction
p2159
(dp2160
g10
I01
sg11
g35
sg13
I01
sg14
I505
sg15
(I800
I244
tp2161
sg17
(I-47
I-13
I-144
tp2162
sg19
g20
sg21
I460
sg22
(I34
I34
tp2163
sbsI461
(iniveau
NiveauAction
p2164
(dp2165
g10
I01
sg11
g12
sg13
I00
sg14
I507
sg15
(I800
I306
tp2166
sg17
(I-78
I-25
I-134
tp2167
sg19
g20
sg21
I461
sg22
(I98
I98
tp2168
sbsI462
(iniveau
NiveauAction
p2169
(dp2170
g10
I01
sg11
g35
sg13
I01
sg14
I508
sg15
(I800
I97
tp2171
sg17
(I-21
I-4
I97
tp2172
sg19
g20
sg21
I462
sg22
(I60
I60
tp2173
sbsI463
(iniveau
NiveauAction
p2174
(dp2175
g10
I01
sg11
g12
sg13
I00
sg14
I508
sg15
(I800
I438
tp2176
sg17
(I-59
I6
I-96
tp2177
sg19
g20
sg21
I463
sg22
(I88
I88
tp2178
sbsI464
(iniveau
NiveauAction
p2179
(dp2180
g10
I01
sg11
g35
sg13
I01
sg14
I510
sg15
(I800
I280
tp2181
sg17
(I-43
I-10
I-159
tp2182
sg19
g20
sg21
I464
sg22
(I37
I37
tp2183
sbsI465
(iniveau
NiveauAction
p2184
(dp2185
g10
I01
sg11
g12
sg13
I00
sg14
I512
sg15
(I800
I144
tp2186
sg17
(I-47
I-24
I152
tp2187
sg19
g20
sg21
I465
sg22
(I87
I87
tp2188
sbsI466
(iniveau
NiveauAction
p2189
(dp2190
g10
I01
sg11
g35
sg13
I01
sg14
I513
sg15
(I800
I66
tp2191
sg17
(I-29
I-1
I101
tp2192
sg19
g20
sg21
I466
sg22
(I36
I36
tp2193
sbsI467
(iniveau
NiveauAction
p2194
(dp2195
g10
I01
sg11
g12
sg13
I00
sg14
I514
sg15
(I800
I99
tp2196
sg17
(I-71
I9
I-160
tp2197
sg19
g20
sg21
I467
sg22
(I78
I78
tp2198
sbsI468
(iniveau
NiveauAction
p2199
(dp2200
g10
I01
sg11
g26
sg13
I00
sg14
I514
sg15
(I800
I65
tp2201
sg17
g28
sg19
g20
sg21
I468
sg22
g29
sbsI469
(iniveau
NiveauAction
p2202
(dp2203
g10
I01
sg11
g35
sg13
I01
sg14
I516
sg15
(I800
I11
tp2204
sg17
(I-27
I-11
I-48
tp2205
sg19
g20
sg21
I469
sg22
(I59
I59
tp2206
sbsI470
(iniveau
NiveauAction
p2207
(dp2208
g10
I01
sg11
g12
sg13
I00
sg14
I517
sg15
(I800
I30
tp2209
sg17
(I-45
I-8
I-101
tp2210
sg19
g20
sg21
I470
sg22
(I61
I61
tp2211
sbsI471
(iniveau
NiveauAction
p2212
(dp2213
g10
I01
sg11
g35
sg13
I01
sg14
I517
sg15
(I800
I7
tp2214
sg17
(I-50
I-12
I73
tp2215
sg19
g20
sg21
I471
sg22
(I61
I61
tp2216
sbsI472
(iniveau
NiveauAction
p2217
(dp2218
g10
I01
sg11
g35
sg13
I01
sg14
I517
sg15
(I800
I267
tp2219
sg17
(I-36
I1
I-21
tp2220
sg19
g20
sg21
I472
sg22
(I38
I38
tp2221
sbsI473
(iniveau
NiveauAction
p2222
(dp2223
g10
I01
sg11
g12
sg13
I00
sg14
I519
sg15
(I800
I268
tp2224
sg17
(I-73
I28
I-15
tp2225
sg19
g20
sg21
I473
sg22
(I66
I66
tp2226
sbsI474
(iniveau
NiveauAction
p2227
(dp2228
g10
I01
sg11
g35
sg13
I01
sg14
I520
sg15
(I800
I495
tp2229
sg17
(I-50
I5
I-33
tp2230
sg19
g20
sg21
I474
sg22
(I61
I61
tp2231
sbsI475
(iniveau
NiveauAction
p2232
(dp2233
g10
I01
sg11
g12
sg13
I00
sg14
I521
sg15
(I800
I291
tp2234
sg17
(I-50
I2
I-57
tp2235
sg19
g20
sg21
I475
sg22
(I71
I71
tp2236
sbsI476
(iniveau
NiveauAction
p2237
(dp2238
g10
I01
sg11
g12
sg13
I00
sg14
I521
sg15
(I800
I353
tp2239
sg17
(I-42
I-16
I89
tp2240
sg19
g20
sg21
I476
sg22
(I76
I76
tp2241
sbsI477
(iniveau
NiveauAction
p2242
(dp2243
g10
I01
sg11
g35
sg13
I01
sg14
I523
sg15
(I800
I181
tp2244
sg17
(I-34
I8
I-137
tp2245
sg19
g20
sg21
I477
sg22
(I42
I42
tp2246
sbsI478
(iniveau
NiveauAction
p2247
(dp2248
g10
I01
sg11
g26
sg13
I00
sg14
I526
sg15
(I800
I146
tp2249
sg17
g28
sg19
g20
sg21
I478
sg22
g29
sbsI479
(iniveau
NiveauAction
p2250
(dp2251
g10
I01
sg11
g12
sg13
I00
sg14
I528
sg15
(I800
I377
tp2252
sg17
(I-50
I-5
I137
tp2253
sg19
g20
sg21
I479
sg22
(I58
I58
tp2254
sbsI480
(iniveau
NiveauAction
p2255
(dp2256
g10
I01
sg11
g35
sg13
I01
sg14
I529
sg15
(I800
I366
tp2257
sg17
(I-18
I-13
I-30
tp2258
sg19
g20
sg21
I480
sg22
(I33
I33
tp2259
sbsI481
(iniveau
NiveauAction
p2260
(dp2261
g10
I01
sg11
g35
sg13
I01
sg14
I529
sg15
(I800
I258
tp2262
sg17
(I-29
I-18
I-124
tp2263
sg19
g20
sg21
I481
sg22
(I30
I30
tp2264
sbsI482
(iniveau
NiveauAction
p2265
(dp2266
g10
I01
sg11
g12
sg13
I00
sg14
I529
sg15
(I800
I292
tp2267
sg17
(I-99
I1
I26
tp2268
sg19
g20
sg21
I482
sg22
(I66
I66
tp2269
sbsI483
(iniveau
NiveauAction
p2270
(dp2271
g10
I01
sg11
g35
sg13
I01
sg14
I530
sg15
(I800
I410
tp2272
sg17
(I-41
I20
I-89
tp2273
sg19
g20
sg21
I483
sg22
(I45
I45
tp2274
sbsI484
(iniveau
NiveauAction
p2275
(dp2276
g10
I01
sg11
g26
sg13
I00
sg14
I532
sg15
(I800
I492
tp2277
sg17
g28
sg19
g20
sg21
I484
sg22
g29
sbsI485
(iniveau
NiveauAction
p2278
(dp2279
g10
I01
sg11
g35
sg13
I01
sg14
I532
sg15
(I800
I382
tp2280
sg17
(I-23
I17
I86
tp2281
sg19
g20
sg21
I485
sg22
(I53
I53
tp2282
sbsI486
(iniveau
NiveauAction
p2283
(dp2284
g10
I01
sg11
g26
sg13
I00
sg14
I533
sg15
(I800
I291
tp2285
sg17
g28
sg19
g20
sg21
I486
sg22
g29
sbsI487
(iniveau
NiveauAction
p2286
(dp2287
g10
I01
sg11
g35
sg13
I01
sg14
I534
sg15
(I800
I9
tp2288
sg17
(I-47
I-11
I-33
tp2289
sg19
g20
sg21
I487
sg22
(I51
I51
tp2290
sbsI488
(iniveau
NiveauAction
p2291
(dp2292
g10
I01
sg11
g26
sg13
I00
sg14
I535
sg15
(I800
I112
tp2293
sg17
g28
sg19
g20
sg21
I488
sg22
g29
sbsI489
(iniveau
NiveauAction
p2294
(dp2295
g10
I01
sg11
g35
sg13
I01
sg14
I537
sg15
(I800
I404
tp2296
sg17
(I-46
I3
I-72
tp2297
sg19
g20
sg21
I489
sg22
(I64
I64
tp2298
sbsI490
(iniveau
NiveauAction
p2299
(dp2300
g10
I01
sg11
g12
sg13
I00
sg14
I538
sg15
(I800
I408
tp2301
sg17
(I-51
I12
I-35
tp2302
sg19
g20
sg21
I490
sg22
(I61
I61
tp2303
sbsI491
(iniveau
NiveauAction
p2304
(dp2305
g10
I01
sg11
g35
sg13
I01
sg14
I540
sg15
(I800
I246
tp2306
sg17
(I-37
I2
I-33
tp2307
sg19
g20
sg21
I491
sg22
(I39
I39
tp2308
sbsI492
(iniveau
NiveauAction
p2309
(dp2310
g10
I01
sg11
g12
sg13
I00
sg14
I541
sg15
(I800
I367
tp2311
sg17
(I-65
I-12
I111
tp2312
sg19
g20
sg21
I492
sg22
(I51
I51
tp2313
sbsI493
(iniveau
NiveauAction
p2314
(dp2315
g10
I01
sg11
g12
sg13
I00
sg14
I543
sg15
(I800
I108
tp2316
sg17
(I-67
I-22
I76
tp2317
sg19
g20
sg21
I493
sg22
(I54
I54
tp2318
sbsI494
(iniveau
NiveauAction
p2319
(dp2320
g10
I01
sg11
g26
sg13
I00
sg14
I544
sg15
(I800
I425
tp2321
sg17
g28
sg19
g20
sg21
I494
sg22
g29
sbsI495
(iniveau
NiveauAction
p2322
(dp2323
g10
I01
sg11
g35
sg13
I01
sg14
I545
sg15
(I800
I125
tp2324
sg17
(I-37
I-18
I-59
tp2325
sg19
g20
sg21
I495
sg22
(I50
I50
tp2326
sbsI496
(iniveau
NiveauAction
p2327
(dp2328
g10
I01
sg11
g12
sg13
I00
sg14
I547
sg15
(I800
I324
tp2329
sg17
(I-69
I2
I18
tp2330
sg19
g20
sg21
I496
sg22
(I68
I68
tp2331
sbsI497
(iniveau
NiveauAction
p2332
(dp2333
g10
I01
sg11
g26
sg13
I00
sg14
I549
sg15
(I800
I154
tp2334
sg17
g28
sg19
g20
sg21
I497
sg22
g29
sbsI498
(iniveau
NiveauAction
p2335
(dp2336
g10
I01
sg11
g12
sg13
I00
sg14
I549
sg15
(I800
I24
tp2337
sg17
(I-36
I-1
I-32
tp2338
sg19
g20
sg21
I498
sg22
(I81
I81
tp2339
sbsI499
(iniveau
NiveauAction
p2340
(dp2341
g10
I01
sg11
g12
sg13
I00
sg14
I550
sg15
(I800
I99
tp2342
sg17
(I-72
I-8
I-130
tp2343
sg19
g20
sg21
I499
sg22
(I83
I83
tp2344
sbssg21
S'3-zardoz'
p2345
sb.